
Aeron Polux 2.1.elf:     file format elf32-littlearm

Sections:
Idx Name          Size      VMA       LMA       File off  Algn
  0 .isr_vector   000001d8  08000000  08000000  00001000  2**0
                  CONTENTS, ALLOC, LOAD, READONLY, DATA
  1 .text         00002ae0  080001d8  080001d8  000011d8  2**3
                  CONTENTS, ALLOC, LOAD, READONLY, CODE
  2 .rodata       00000040  08002cb8  08002cb8  00003cb8  2**2
                  CONTENTS, ALLOC, LOAD, READONLY, DATA
  3 .ARM.extab    00000000  08002cf8  08002cf8  00004014  2**0
                  CONTENTS
  4 .ARM          00000008  08002cf8  08002cf8  00003cf8  2**2
                  CONTENTS, ALLOC, LOAD, READONLY, DATA
  5 .preinit_array 00000000  08002d00  08002d00  00004014  2**0
                  CONTENTS, ALLOC, LOAD, DATA
  6 .init_array   00000004  08002d00  08002d00  00003d00  2**2
                  CONTENTS, ALLOC, LOAD, READONLY, DATA
  7 .fini_array   00000004  08002d04  08002d04  00003d04  2**2
                  CONTENTS, ALLOC, LOAD, READONLY, DATA
  8 .data         00000014  20000000  08002d08  00004000  2**2
                  CONTENTS, ALLOC, LOAD, DATA
  9 .bss          0000043c  20000018  08002d1c  00004018  2**3
                  ALLOC
 10 ._user_heap_stack 00000604  20000454  08002d1c  00004454  2**0
                  ALLOC
 11 .ARM.attributes 00000030  00000000  00000000  00004014  2**0
                  CONTENTS, READONLY
 12 .debug_info   000135bf  00000000  00000000  00004044  2**0
                  CONTENTS, READONLY, DEBUGGING, OCTETS
 13 .debug_abbrev 00002972  00000000  00000000  00017603  2**0
                  CONTENTS, READONLY, DEBUGGING, OCTETS
 14 .debug_loclists 00007a48  00000000  00000000  00019f75  2**0
                  CONTENTS, READONLY, DEBUGGING, OCTETS
 15 .debug_aranges 00000a70  00000000  00000000  000219c0  2**3
                  CONTENTS, READONLY, DEBUGGING, OCTETS
 16 .debug_rnglists 00000e8c  00000000  00000000  00022430  2**0
                  CONTENTS, READONLY, DEBUGGING, OCTETS
 17 .debug_macro  000252f9  00000000  00000000  000232bc  2**0
                  CONTENTS, READONLY, DEBUGGING, OCTETS
 18 .debug_line   00012b17  00000000  00000000  000485b5  2**0
                  CONTENTS, READONLY, DEBUGGING, OCTETS
 19 .debug_str    000ea32a  00000000  00000000  0005b0cc  2**0
                  CONTENTS, READONLY, DEBUGGING, OCTETS
 20 .comment      00000043  00000000  00000000  001453f6  2**0
                  CONTENTS, READONLY
 21 .debug_frame  00001a90  00000000  00000000  0014543c  2**2
                  CONTENTS, READONLY, DEBUGGING, OCTETS
 22 .debug_line_str 00000083  00000000  00000000  00146ecc  2**0
                  CONTENTS, READONLY, DEBUGGING, OCTETS

Disassembly of section .text:

080001d8 <__do_global_dtors_aux>:
 80001d8:	b510      	push	{r4, lr}
 80001da:	4c05      	ldr	r4, [pc, #20]	@ (80001f0 <__do_global_dtors_aux+0x18>)
 80001dc:	7823      	ldrb	r3, [r4, #0]
 80001de:	b933      	cbnz	r3, 80001ee <__do_global_dtors_aux+0x16>
 80001e0:	4b04      	ldr	r3, [pc, #16]	@ (80001f4 <__do_global_dtors_aux+0x1c>)
 80001e2:	b113      	cbz	r3, 80001ea <__do_global_dtors_aux+0x12>
 80001e4:	4804      	ldr	r0, [pc, #16]	@ (80001f8 <__do_global_dtors_aux+0x20>)
 80001e6:	f3af 8000 	nop.w
 80001ea:	2301      	movs	r3, #1
 80001ec:	7023      	strb	r3, [r4, #0]
 80001ee:	bd10      	pop	{r4, pc}
 80001f0:	20000018 	.word	0x20000018
 80001f4:	00000000 	.word	0x00000000
 80001f8:	08002ca0 	.word	0x08002ca0

080001fc <frame_dummy>:
 80001fc:	b508      	push	{r3, lr}
 80001fe:	4b03      	ldr	r3, [pc, #12]	@ (800020c <frame_dummy+0x10>)
 8000200:	b11b      	cbz	r3, 800020a <frame_dummy+0xe>
 8000202:	4903      	ldr	r1, [pc, #12]	@ (8000210 <frame_dummy+0x14>)
 8000204:	4803      	ldr	r0, [pc, #12]	@ (8000214 <frame_dummy+0x18>)
 8000206:	f3af 8000 	nop.w
 800020a:	bd08      	pop	{r3, pc}
 800020c:	00000000 	.word	0x00000000
 8000210:	2000001c 	.word	0x2000001c
 8000214:	08002ca0 	.word	0x08002ca0

08000218 <__aeabi_uldivmod>:
 8000218:	b953      	cbnz	r3, 8000230 <__aeabi_uldivmod+0x18>
 800021a:	b94a      	cbnz	r2, 8000230 <__aeabi_uldivmod+0x18>
 800021c:	2900      	cmp	r1, #0
 800021e:	bf08      	it	eq
 8000220:	2800      	cmpeq	r0, #0
 8000222:	bf1c      	itt	ne
 8000224:	f04f 31ff 	movne.w	r1, #4294967295	@ 0xffffffff
 8000228:	f04f 30ff 	movne.w	r0, #4294967295	@ 0xffffffff
 800022c:	f000 b96a 	b.w	8000504 <__aeabi_idiv0>
 8000230:	f1ad 0c08 	sub.w	ip, sp, #8
 8000234:	e96d ce04 	strd	ip, lr, [sp, #-16]!
 8000238:	f000 f806 	bl	8000248 <__udivmoddi4>
 800023c:	f8dd e004 	ldr.w	lr, [sp, #4]
 8000240:	e9dd 2302 	ldrd	r2, r3, [sp, #8]
 8000244:	b004      	add	sp, #16
 8000246:	4770      	bx	lr

08000248 <__udivmoddi4>:
 8000248:	e92d 47f0 	stmdb	sp!, {r4, r5, r6, r7, r8, r9, sl, lr}
 800024c:	9d08      	ldr	r5, [sp, #32]
 800024e:	460c      	mov	r4, r1
 8000250:	2b00      	cmp	r3, #0
 8000252:	d14e      	bne.n	80002f2 <__udivmoddi4+0xaa>
 8000254:	4694      	mov	ip, r2
 8000256:	458c      	cmp	ip, r1
 8000258:	4686      	mov	lr, r0
 800025a:	fab2 f282 	clz	r2, r2
 800025e:	d962      	bls.n	8000326 <__udivmoddi4+0xde>
 8000260:	b14a      	cbz	r2, 8000276 <__udivmoddi4+0x2e>
 8000262:	f1c2 0320 	rsb	r3, r2, #32
 8000266:	4091      	lsls	r1, r2
 8000268:	fa20 f303 	lsr.w	r3, r0, r3
 800026c:	fa0c fc02 	lsl.w	ip, ip, r2
 8000270:	4319      	orrs	r1, r3
 8000272:	fa00 fe02 	lsl.w	lr, r0, r2
 8000276:	ea4f 471c 	mov.w	r7, ip, lsr #16
 800027a:	fa1f f68c 	uxth.w	r6, ip
 800027e:	fbb1 f4f7 	udiv	r4, r1, r7
 8000282:	ea4f 431e 	mov.w	r3, lr, lsr #16
 8000286:	fb07 1114 	mls	r1, r7, r4, r1
 800028a:	ea43 4301 	orr.w	r3, r3, r1, lsl #16
 800028e:	fb04 f106 	mul.w	r1, r4, r6
 8000292:	4299      	cmp	r1, r3
 8000294:	d90a      	bls.n	80002ac <__udivmoddi4+0x64>
 8000296:	eb1c 0303 	adds.w	r3, ip, r3
 800029a:	f104 30ff 	add.w	r0, r4, #4294967295	@ 0xffffffff
 800029e:	f080 8112 	bcs.w	80004c6 <__udivmoddi4+0x27e>
 80002a2:	4299      	cmp	r1, r3
 80002a4:	f240 810f 	bls.w	80004c6 <__udivmoddi4+0x27e>
 80002a8:	3c02      	subs	r4, #2
 80002aa:	4463      	add	r3, ip
 80002ac:	1a59      	subs	r1, r3, r1
 80002ae:	fa1f f38e 	uxth.w	r3, lr
 80002b2:	fbb1 f0f7 	udiv	r0, r1, r7
 80002b6:	fb07 1110 	mls	r1, r7, r0, r1
 80002ba:	ea43 4301 	orr.w	r3, r3, r1, lsl #16
 80002be:	fb00 f606 	mul.w	r6, r0, r6
 80002c2:	429e      	cmp	r6, r3
 80002c4:	d90a      	bls.n	80002dc <__udivmoddi4+0x94>
 80002c6:	eb1c 0303 	adds.w	r3, ip, r3
 80002ca:	f100 31ff 	add.w	r1, r0, #4294967295	@ 0xffffffff
 80002ce:	f080 80fc 	bcs.w	80004ca <__udivmoddi4+0x282>
 80002d2:	429e      	cmp	r6, r3
 80002d4:	f240 80f9 	bls.w	80004ca <__udivmoddi4+0x282>
 80002d8:	4463      	add	r3, ip
 80002da:	3802      	subs	r0, #2
 80002dc:	1b9b      	subs	r3, r3, r6
 80002de:	ea40 4004 	orr.w	r0, r0, r4, lsl #16
 80002e2:	2100      	movs	r1, #0
 80002e4:	b11d      	cbz	r5, 80002ee <__udivmoddi4+0xa6>
 80002e6:	40d3      	lsrs	r3, r2
 80002e8:	2200      	movs	r2, #0
 80002ea:	e9c5 3200 	strd	r3, r2, [r5]
 80002ee:	e8bd 87f0 	ldmia.w	sp!, {r4, r5, r6, r7, r8, r9, sl, pc}
 80002f2:	428b      	cmp	r3, r1
 80002f4:	d905      	bls.n	8000302 <__udivmoddi4+0xba>
 80002f6:	b10d      	cbz	r5, 80002fc <__udivmoddi4+0xb4>
 80002f8:	e9c5 0100 	strd	r0, r1, [r5]
 80002fc:	2100      	movs	r1, #0
 80002fe:	4608      	mov	r0, r1
 8000300:	e7f5      	b.n	80002ee <__udivmoddi4+0xa6>
 8000302:	fab3 f183 	clz	r1, r3
 8000306:	2900      	cmp	r1, #0
 8000308:	d146      	bne.n	8000398 <__udivmoddi4+0x150>
 800030a:	42a3      	cmp	r3, r4
 800030c:	d302      	bcc.n	8000314 <__udivmoddi4+0xcc>
 800030e:	4290      	cmp	r0, r2
 8000310:	f0c0 80f0 	bcc.w	80004f4 <__udivmoddi4+0x2ac>
 8000314:	1a86      	subs	r6, r0, r2
 8000316:	eb64 0303 	sbc.w	r3, r4, r3
 800031a:	2001      	movs	r0, #1
 800031c:	2d00      	cmp	r5, #0
 800031e:	d0e6      	beq.n	80002ee <__udivmoddi4+0xa6>
 8000320:	e9c5 6300 	strd	r6, r3, [r5]
 8000324:	e7e3      	b.n	80002ee <__udivmoddi4+0xa6>
 8000326:	2a00      	cmp	r2, #0
 8000328:	f040 8090 	bne.w	800044c <__udivmoddi4+0x204>
 800032c:	eba1 040c 	sub.w	r4, r1, ip
 8000330:	ea4f 481c 	mov.w	r8, ip, lsr #16
 8000334:	fa1f f78c 	uxth.w	r7, ip
 8000338:	2101      	movs	r1, #1
 800033a:	fbb4 f6f8 	udiv	r6, r4, r8
 800033e:	ea4f 431e 	mov.w	r3, lr, lsr #16
 8000342:	fb08 4416 	mls	r4, r8, r6, r4
 8000346:	ea43 4304 	orr.w	r3, r3, r4, lsl #16
 800034a:	fb07 f006 	mul.w	r0, r7, r6
 800034e:	4298      	cmp	r0, r3
 8000350:	d908      	bls.n	8000364 <__udivmoddi4+0x11c>
 8000352:	eb1c 0303 	adds.w	r3, ip, r3
 8000356:	f106 34ff 	add.w	r4, r6, #4294967295	@ 0xffffffff
 800035a:	d202      	bcs.n	8000362 <__udivmoddi4+0x11a>
 800035c:	4298      	cmp	r0, r3
 800035e:	f200 80cd 	bhi.w	80004fc <__udivmoddi4+0x2b4>
 8000362:	4626      	mov	r6, r4
 8000364:	1a1c      	subs	r4, r3, r0
 8000366:	fa1f f38e 	uxth.w	r3, lr
 800036a:	fbb4 f0f8 	udiv	r0, r4, r8
 800036e:	fb08 4410 	mls	r4, r8, r0, r4
 8000372:	ea43 4304 	orr.w	r3, r3, r4, lsl #16
 8000376:	fb00 f707 	mul.w	r7, r0, r7
 800037a:	429f      	cmp	r7, r3
 800037c:	d908      	bls.n	8000390 <__udivmoddi4+0x148>
 800037e:	eb1c 0303 	adds.w	r3, ip, r3
 8000382:	f100 34ff 	add.w	r4, r0, #4294967295	@ 0xffffffff
 8000386:	d202      	bcs.n	800038e <__udivmoddi4+0x146>
 8000388:	429f      	cmp	r7, r3
 800038a:	f200 80b0 	bhi.w	80004ee <__udivmoddi4+0x2a6>
 800038e:	4620      	mov	r0, r4
 8000390:	1bdb      	subs	r3, r3, r7
 8000392:	ea40 4006 	orr.w	r0, r0, r6, lsl #16
 8000396:	e7a5      	b.n	80002e4 <__udivmoddi4+0x9c>
 8000398:	f1c1 0620 	rsb	r6, r1, #32
 800039c:	408b      	lsls	r3, r1
 800039e:	fa22 f706 	lsr.w	r7, r2, r6
 80003a2:	431f      	orrs	r7, r3
 80003a4:	fa20 fc06 	lsr.w	ip, r0, r6
 80003a8:	fa04 f301 	lsl.w	r3, r4, r1
 80003ac:	ea43 030c 	orr.w	r3, r3, ip
 80003b0:	40f4      	lsrs	r4, r6
 80003b2:	fa00 f801 	lsl.w	r8, r0, r1
 80003b6:	0c38      	lsrs	r0, r7, #16
 80003b8:	ea4f 4913 	mov.w	r9, r3, lsr #16
 80003bc:	fbb4 fef0 	udiv	lr, r4, r0
 80003c0:	fa1f fc87 	uxth.w	ip, r7
 80003c4:	fb00 441e 	mls	r4, r0, lr, r4
 80003c8:	ea49 4404 	orr.w	r4, r9, r4, lsl #16
 80003cc:	fb0e f90c 	mul.w	r9, lr, ip
 80003d0:	45a1      	cmp	r9, r4
 80003d2:	fa02 f201 	lsl.w	r2, r2, r1
 80003d6:	d90a      	bls.n	80003ee <__udivmoddi4+0x1a6>
 80003d8:	193c      	adds	r4, r7, r4
 80003da:	f10e 3aff 	add.w	sl, lr, #4294967295	@ 0xffffffff
 80003de:	f080 8084 	bcs.w	80004ea <__udivmoddi4+0x2a2>
 80003e2:	45a1      	cmp	r9, r4
 80003e4:	f240 8081 	bls.w	80004ea <__udivmoddi4+0x2a2>
 80003e8:	f1ae 0e02 	sub.w	lr, lr, #2
 80003ec:	443c      	add	r4, r7
 80003ee:	eba4 0409 	sub.w	r4, r4, r9
 80003f2:	fa1f f983 	uxth.w	r9, r3
 80003f6:	fbb4 f3f0 	udiv	r3, r4, r0
 80003fa:	fb00 4413 	mls	r4, r0, r3, r4
 80003fe:	ea49 4404 	orr.w	r4, r9, r4, lsl #16
 8000402:	fb03 fc0c 	mul.w	ip, r3, ip
 8000406:	45a4      	cmp	ip, r4
 8000408:	d907      	bls.n	800041a <__udivmoddi4+0x1d2>
 800040a:	193c      	adds	r4, r7, r4
 800040c:	f103 30ff 	add.w	r0, r3, #4294967295	@ 0xffffffff
 8000410:	d267      	bcs.n	80004e2 <__udivmoddi4+0x29a>
 8000412:	45a4      	cmp	ip, r4
 8000414:	d965      	bls.n	80004e2 <__udivmoddi4+0x29a>
 8000416:	3b02      	subs	r3, #2
 8000418:	443c      	add	r4, r7
 800041a:	ea43 400e 	orr.w	r0, r3, lr, lsl #16
 800041e:	fba0 9302 	umull	r9, r3, r0, r2
 8000422:	eba4 040c 	sub.w	r4, r4, ip
 8000426:	429c      	cmp	r4, r3
 8000428:	46ce      	mov	lr, r9
 800042a:	469c      	mov	ip, r3
 800042c:	d351      	bcc.n	80004d2 <__udivmoddi4+0x28a>
 800042e:	d04e      	beq.n	80004ce <__udivmoddi4+0x286>
 8000430:	b155      	cbz	r5, 8000448 <__udivmoddi4+0x200>
 8000432:	ebb8 030e 	subs.w	r3, r8, lr
 8000436:	eb64 040c 	sbc.w	r4, r4, ip
 800043a:	fa04 f606 	lsl.w	r6, r4, r6
 800043e:	40cb      	lsrs	r3, r1
 8000440:	431e      	orrs	r6, r3
 8000442:	40cc      	lsrs	r4, r1
 8000444:	e9c5 6400 	strd	r6, r4, [r5]
 8000448:	2100      	movs	r1, #0
 800044a:	e750      	b.n	80002ee <__udivmoddi4+0xa6>
 800044c:	f1c2 0320 	rsb	r3, r2, #32
 8000450:	fa20 f103 	lsr.w	r1, r0, r3
 8000454:	fa0c fc02 	lsl.w	ip, ip, r2
 8000458:	fa24 f303 	lsr.w	r3, r4, r3
 800045c:	4094      	lsls	r4, r2
 800045e:	430c      	orrs	r4, r1
 8000460:	ea4f 481c 	mov.w	r8, ip, lsr #16
 8000464:	fa00 fe02 	lsl.w	lr, r0, r2
 8000468:	fa1f f78c 	uxth.w	r7, ip
 800046c:	fbb3 f0f8 	udiv	r0, r3, r8
 8000470:	fb08 3110 	mls	r1, r8, r0, r3
 8000474:	0c23      	lsrs	r3, r4, #16
 8000476:	ea43 4301 	orr.w	r3, r3, r1, lsl #16
 800047a:	fb00 f107 	mul.w	r1, r0, r7
 800047e:	4299      	cmp	r1, r3
 8000480:	d908      	bls.n	8000494 <__udivmoddi4+0x24c>
 8000482:	eb1c 0303 	adds.w	r3, ip, r3
 8000486:	f100 36ff 	add.w	r6, r0, #4294967295	@ 0xffffffff
 800048a:	d22c      	bcs.n	80004e6 <__udivmoddi4+0x29e>
 800048c:	4299      	cmp	r1, r3
 800048e:	d92a      	bls.n	80004e6 <__udivmoddi4+0x29e>
 8000490:	3802      	subs	r0, #2
 8000492:	4463      	add	r3, ip
 8000494:	1a5b      	subs	r3, r3, r1
 8000496:	b2a4      	uxth	r4, r4
 8000498:	fbb3 f1f8 	udiv	r1, r3, r8
 800049c:	fb08 3311 	mls	r3, r8, r1, r3
 80004a0:	ea44 4403 	orr.w	r4, r4, r3, lsl #16
 80004a4:	fb01 f307 	mul.w	r3, r1, r7
 80004a8:	42a3      	cmp	r3, r4
 80004aa:	d908      	bls.n	80004be <__udivmoddi4+0x276>
 80004ac:	eb1c 0404 	adds.w	r4, ip, r4
 80004b0:	f101 36ff 	add.w	r6, r1, #4294967295	@ 0xffffffff
 80004b4:	d213      	bcs.n	80004de <__udivmoddi4+0x296>
 80004b6:	42a3      	cmp	r3, r4
 80004b8:	d911      	bls.n	80004de <__udivmoddi4+0x296>
 80004ba:	3902      	subs	r1, #2
 80004bc:	4464      	add	r4, ip
 80004be:	1ae4      	subs	r4, r4, r3
 80004c0:	ea41 4100 	orr.w	r1, r1, r0, lsl #16
 80004c4:	e739      	b.n	800033a <__udivmoddi4+0xf2>
 80004c6:	4604      	mov	r4, r0
 80004c8:	e6f0      	b.n	80002ac <__udivmoddi4+0x64>
 80004ca:	4608      	mov	r0, r1
 80004cc:	e706      	b.n	80002dc <__udivmoddi4+0x94>
 80004ce:	45c8      	cmp	r8, r9
 80004d0:	d2ae      	bcs.n	8000430 <__udivmoddi4+0x1e8>
 80004d2:	ebb9 0e02 	subs.w	lr, r9, r2
 80004d6:	eb63 0c07 	sbc.w	ip, r3, r7
 80004da:	3801      	subs	r0, #1
 80004dc:	e7a8      	b.n	8000430 <__udivmoddi4+0x1e8>
 80004de:	4631      	mov	r1, r6
 80004e0:	e7ed      	b.n	80004be <__udivmoddi4+0x276>
 80004e2:	4603      	mov	r3, r0
 80004e4:	e799      	b.n	800041a <__udivmoddi4+0x1d2>
 80004e6:	4630      	mov	r0, r6
 80004e8:	e7d4      	b.n	8000494 <__udivmoddi4+0x24c>
 80004ea:	46d6      	mov	lr, sl
 80004ec:	e77f      	b.n	80003ee <__udivmoddi4+0x1a6>
 80004ee:	4463      	add	r3, ip
 80004f0:	3802      	subs	r0, #2
 80004f2:	e74d      	b.n	8000390 <__udivmoddi4+0x148>
 80004f4:	4606      	mov	r6, r0
 80004f6:	4623      	mov	r3, r4
 80004f8:	4608      	mov	r0, r1
 80004fa:	e70f      	b.n	800031c <__udivmoddi4+0xd4>
 80004fc:	3e02      	subs	r6, #2
 80004fe:	4463      	add	r3, ip
 8000500:	e730      	b.n	8000364 <__udivmoddi4+0x11c>
 8000502:	bf00      	nop

08000504 <__aeabi_idiv0>:
 8000504:	4770      	bx	lr
 8000506:	bf00      	nop

08000508 <HAL_UART_RxCpltCallback>:
/**
  * @brief UART RX Complete Callback
  * @param huart: UART handle
  */
void HAL_UART_RxCpltCallback(UART_HandleTypeDef *huart) {
    if (huart->Instance == USART1) {
 8000508:	4b25      	ldr	r3, [pc, #148]	@ (80005a0 <HAL_UART_RxCpltCallback+0x98>)
 800050a:	6802      	ldr	r2, [r0, #0]
 800050c:	429a      	cmp	r2, r3
 800050e:	d000      	beq.n	8000512 <HAL_UART_RxCpltCallback+0xa>
 8000510:	4770      	bx	lr
void HAL_UART_RxCpltCallback(UART_HandleTypeDef *huart) {
 8000512:	b430      	push	{r4, r5}
        // Check if the received character is a newline or carriage return


        if (temp == '$') {
 8000514:	4b23      	ldr	r3, [pc, #140]	@ (80005a4 <HAL_UART_RxCpltCallback+0x9c>)
        	count++;
 8000516:	4924      	ldr	r1, [pc, #144]	@ (80005a8 <HAL_UART_RxCpltCallback+0xa0>)
        if (temp == '$') {
 8000518:	781a      	ldrb	r2, [r3, #0]
        	count++;
 800051a:	680b      	ldr	r3, [r1, #0]
        if (temp == '$') {
 800051c:	2a24      	cmp	r2, #36	@ 0x24
        	count++;
 800051e:	bf04      	itt	eq
 8000520:	3301      	addeq	r3, #1
 8000522:	600b      	streq	r3, [r1, #0]



        }

        if (count == 7){
 8000524:	2b07      	cmp	r3, #7
 8000526:	d007      	beq.n	8000538 <HAL_UART_RxCpltCallback+0x30>
            		count = 0;
            	}

        switch(count){
 8000528:	2b06      	cmp	r3, #6
 800052a:	d810      	bhi.n	800054e <HAL_UART_RxCpltCallback+0x46>
 800052c:	e8df f003 	tbb	[pc, r3]
 8000530:	291f2406 	.word	0x291f2406
 8000534:	332e      	.short	0x332e
 8000536:	15          	.byte	0x15
 8000537:	00          	.byte	0x00
            		count = 0;
 8000538:	2300      	movs	r3, #0
 800053a:	600b      	str	r3, [r1, #0]
        case 0:
        	o = 0;
        	GPGGA[i] = temp;
 800053c:	491b      	ldr	r1, [pc, #108]	@ (80005ac <HAL_UART_RxCpltCallback+0xa4>)
        	o = 0;
 800053e:	481c      	ldr	r0, [pc, #112]	@ (80005b0 <HAL_UART_RxCpltCallback+0xa8>)
        	GPGGA[i] = temp;
 8000540:	680b      	ldr	r3, [r1, #0]
 8000542:	4d1c      	ldr	r5, [pc, #112]	@ (80005b4 <HAL_UART_RxCpltCallback+0xac>)
        	m++;
        	break;

        case 5:
        	m = 0;
        	AOSTS[n] = temp;
 8000544:	54ea      	strb	r2, [r5, r3]
        	m = 0;
 8000546:	2400      	movs	r4, #0

        	n++;
 8000548:	3301      	adds	r3, #1
        	m = 0;
 800054a:	6004      	str	r4, [r0, #0]
        	n++;
 800054c:	600b      	str	r3, [r1, #0]


        // Restart UART reception for the next character
//        HAL_UART_Receive_IT(&huart1, &RxBuff[RxIndex], 1); // Receive one byte at a time
    }
}
 800054e:	bc30      	pop	{r4, r5}
        HAL_UART_Receive_IT(&huart1, (char*)&temp, 1);
 8000550:	4914      	ldr	r1, [pc, #80]	@ (80005a4 <HAL_UART_RxCpltCallback+0x9c>)
 8000552:	4819      	ldr	r0, [pc, #100]	@ (80005b8 <HAL_UART_RxCpltCallback+0xb0>)
 8000554:	2201      	movs	r2, #1
 8000556:	f001 bac7 	b.w	8001ae8 <HAL_UART_Receive_IT>
        	AOSEN[o] = temp;
 800055a:	4915      	ldr	r1, [pc, #84]	@ (80005b0 <HAL_UART_RxCpltCallback+0xa8>)
 800055c:	4c17      	ldr	r4, [pc, #92]	@ (80005bc <HAL_UART_RxCpltCallback+0xb4>)
 800055e:	680b      	ldr	r3, [r1, #0]
        	n = 0;
 8000560:	4817      	ldr	r0, [pc, #92]	@ (80005c0 <HAL_UART_RxCpltCallback+0xb8>)
        	AOSEN[o] = temp;
 8000562:	54e2      	strb	r2, [r4, r3]
        	o++;
 8000564:	3301      	adds	r3, #1
 8000566:	600b      	str	r3, [r1, #0]
        	n = 0;
 8000568:	2300      	movs	r3, #0
 800056a:	6003      	str	r3, [r0, #0]
        	break;
 800056c:	e7ef      	b.n	800054e <HAL_UART_RxCpltCallback+0x46>
        	AOVEL[k] = temp;
 800056e:	4915      	ldr	r1, [pc, #84]	@ (80005c4 <HAL_UART_RxCpltCallback+0xbc>)
        	j = 0;
 8000570:	4815      	ldr	r0, [pc, #84]	@ (80005c8 <HAL_UART_RxCpltCallback+0xc0>)
        	AOVEL[k] = temp;
 8000572:	680b      	ldr	r3, [r1, #0]
 8000574:	4d15      	ldr	r5, [pc, #84]	@ (80005cc <HAL_UART_RxCpltCallback+0xc4>)
 8000576:	e7e5      	b.n	8000544 <HAL_UART_RxCpltCallback+0x3c>
        	GPRMC[j] = temp;
 8000578:	4913      	ldr	r1, [pc, #76]	@ (80005c8 <HAL_UART_RxCpltCallback+0xc0>)
        	i = 0;
 800057a:	480c      	ldr	r0, [pc, #48]	@ (80005ac <HAL_UART_RxCpltCallback+0xa4>)
        	GPRMC[j] = temp;
 800057c:	680b      	ldr	r3, [r1, #0]
 800057e:	4d14      	ldr	r5, [pc, #80]	@ (80005d0 <HAL_UART_RxCpltCallback+0xc8>)
 8000580:	e7e0      	b.n	8000544 <HAL_UART_RxCpltCallback+0x3c>
        	AOATT[l] = temp;
 8000582:	4914      	ldr	r1, [pc, #80]	@ (80005d4 <HAL_UART_RxCpltCallback+0xcc>)
        	k = 0;
 8000584:	480f      	ldr	r0, [pc, #60]	@ (80005c4 <HAL_UART_RxCpltCallback+0xbc>)
        	AOATT[l] = temp;
 8000586:	680b      	ldr	r3, [r1, #0]
 8000588:	4d13      	ldr	r5, [pc, #76]	@ (80005d8 <HAL_UART_RxCpltCallback+0xd0>)
 800058a:	e7db      	b.n	8000544 <HAL_UART_RxCpltCallback+0x3c>
        	AOGPS[m] = temp;
 800058c:	4913      	ldr	r1, [pc, #76]	@ (80005dc <HAL_UART_RxCpltCallback+0xd4>)
        	l = 0;
 800058e:	4811      	ldr	r0, [pc, #68]	@ (80005d4 <HAL_UART_RxCpltCallback+0xcc>)
        	AOGPS[m] = temp;
 8000590:	680b      	ldr	r3, [r1, #0]
 8000592:	4d13      	ldr	r5, [pc, #76]	@ (80005e0 <HAL_UART_RxCpltCallback+0xd8>)
 8000594:	e7d6      	b.n	8000544 <HAL_UART_RxCpltCallback+0x3c>
        	AOSTS[n] = temp;
 8000596:	490a      	ldr	r1, [pc, #40]	@ (80005c0 <HAL_UART_RxCpltCallback+0xb8>)
        	m = 0;
 8000598:	4810      	ldr	r0, [pc, #64]	@ (80005dc <HAL_UART_RxCpltCallback+0xd4>)
        	AOSTS[n] = temp;
 800059a:	680b      	ldr	r3, [r1, #0]
 800059c:	4d11      	ldr	r5, [pc, #68]	@ (80005e4 <HAL_UART_RxCpltCallback+0xdc>)
 800059e:	e7d1      	b.n	8000544 <HAL_UART_RxCpltCallback+0x3c>
 80005a0:	40013800 	.word	0x40013800
 80005a4:	20000398 	.word	0x20000398
 80005a8:	20000000 	.word	0x20000000
 80005ac:	200003b4 	.word	0x200003b4
 80005b0:	2000039c 	.word	0x2000039c
 80005b4:	20000334 	.word	0x20000334
 80005b8:	20000038 	.word	0x20000038
 80005bc:	200000dc 	.word	0x200000dc
 80005c0:	200003a0 	.word	0x200003a0
 80005c4:	200003ac 	.word	0x200003ac
 80005c8:	200003b0 	.word	0x200003b0
 80005cc:	2000026c 	.word	0x2000026c
 80005d0:	200002d0 	.word	0x200002d0
 80005d4:	200003a8 	.word	0x200003a8
 80005d8:	20000208 	.word	0x20000208
 80005dc:	200003a4 	.word	0x200003a4
 80005e0:	200001a4 	.word	0x200001a4
 80005e4:	20000140 	.word	0x20000140

080005e8 <SystemClock_Config>:
/**
  * @brief System Clock Configuration
  * @retval None
  */
void SystemClock_Config(void)
{
 80005e8:	b510      	push	{r4, lr}
 80005ea:	b094      	sub	sp, #80	@ 0x50
  RCC_OscInitTypeDef RCC_OscInitStruct = {0};
 80005ec:	2238      	movs	r2, #56	@ 0x38
 80005ee:	2100      	movs	r1, #0
 80005f0:	a806      	add	r0, sp, #24
 80005f2:	f002 fb29 	bl	8002c48 <memset>
  RCC_ClkInitTypeDef RCC_ClkInitStruct = {0};
 80005f6:	2400      	movs	r4, #0

  /** Configure the main internal regulator output voltage
  */
  HAL_PWREx_ControlVoltageScaling(PWR_REGULATOR_VOLTAGE_SCALE1);
 80005f8:	f44f 7000 	mov.w	r0, #512	@ 0x200
  RCC_ClkInitTypeDef RCC_ClkInitStruct = {0};
 80005fc:	e9cd 4401 	strd	r4, r4, [sp, #4]
 8000600:	e9cd 4403 	strd	r4, r4, [sp, #12]
 8000604:	9405      	str	r4, [sp, #20]
  HAL_PWREx_ControlVoltageScaling(PWR_REGULATOR_VOLTAGE_SCALE1);
 8000606:	f000 fcc3 	bl	8000f90 <HAL_PWREx_ControlVoltageScaling>

  /** Initializes the RCC Oscillators according to the specified parameters
  * in the RCC_OscInitTypeDef structure.
  */
  RCC_OscInitStruct.OscillatorType = RCC_OSCILLATORTYPE_HSI;
  RCC_OscInitStruct.HSIState = RCC_HSI_ON;
 800060a:	f44f 7380 	mov.w	r3, #256	@ 0x100
  RCC_OscInitStruct.OscillatorType = RCC_OSCILLATORTYPE_HSI;
 800060e:	2202      	movs	r2, #2
  RCC_OscInitStruct.HSIState = RCC_HSI_ON;
 8000610:	9309      	str	r3, [sp, #36]	@ 0x24
  RCC_OscInitStruct.HSICalibrationValue = RCC_HSICALIBRATION_DEFAULT;
  RCC_OscInitStruct.PLL.PLLState = RCC_PLL_NONE;
  if (HAL_RCC_OscConfig(&RCC_OscInitStruct) != HAL_OK)
 8000612:	a806      	add	r0, sp, #24
  RCC_OscInitStruct.HSIState = RCC_HSI_ON;
 8000614:	2340      	movs	r3, #64	@ 0x40
  RCC_OscInitStruct.OscillatorType = RCC_OSCILLATORTYPE_HSI;
 8000616:	9206      	str	r2, [sp, #24]
  RCC_OscInitStruct.HSIState = RCC_HSI_ON;
 8000618:	930a      	str	r3, [sp, #40]	@ 0x28
  RCC_OscInitStruct.PLL.PLLState = RCC_PLL_NONE;
 800061a:	940d      	str	r4, [sp, #52]	@ 0x34
  if (HAL_RCC_OscConfig(&RCC_OscInitStruct) != HAL_OK)
 800061c:	f000 fd32 	bl	8001084 <HAL_RCC_OscConfig>
 8000620:	b108      	cbz	r0, 8000626 <SystemClock_Config+0x3e>
  \details Disables IRQ interrupts by setting the I-bit in the CPSR.
           Can only be executed in Privileged modes.
 */
__STATIC_FORCEINLINE void __disable_irq(void)
{
  __ASM volatile ("cpsid i" : : : "memory");
 8000622:	b672      	cpsid	i
void Error_Handler(void)
{
  /* USER CODE BEGIN Error_Handler_Debug */
  /* User can add his own implementation to report the HAL error return state */
  __disable_irq();
  while (1)
 8000624:	e7fe      	b.n	8000624 <SystemClock_Config+0x3c>
  RCC_ClkInitStruct.ClockType = RCC_CLOCKTYPE_HCLK|RCC_CLOCKTYPE_SYSCLK
 8000626:	4601      	mov	r1, r0
 8000628:	220f      	movs	r2, #15
  RCC_ClkInitStruct.SYSCLKSource = RCC_SYSCLKSOURCE_HSI;
 800062a:	2301      	movs	r3, #1
  if (HAL_RCC_ClockConfig(&RCC_ClkInitStruct, FLASH_LATENCY_0) != HAL_OK)
 800062c:	a801      	add	r0, sp, #4
  RCC_ClkInitStruct.SYSCLKSource = RCC_SYSCLKSOURCE_HSI;
 800062e:	e9cd 2301 	strd	r2, r3, [sp, #4]
  RCC_ClkInitStruct.APB1CLKDivider = RCC_HCLK_DIV1;
 8000632:	e9cd 1103 	strd	r1, r1, [sp, #12]
  RCC_ClkInitStruct.APB2CLKDivider = RCC_HCLK_DIV1;
 8000636:	9105      	str	r1, [sp, #20]
  if (HAL_RCC_ClockConfig(&RCC_ClkInitStruct, FLASH_LATENCY_0) != HAL_OK)
 8000638:	f000 ffa2 	bl	8001580 <HAL_RCC_ClockConfig>
 800063c:	b108      	cbz	r0, 8000642 <SystemClock_Config+0x5a>
 800063e:	b672      	cpsid	i
  while (1)
 8000640:	e7fe      	b.n	8000640 <SystemClock_Config+0x58>
}
 8000642:	b014      	add	sp, #80	@ 0x50
 8000644:	bd10      	pop	{r4, pc}
 8000646:	bf00      	nop

08000648 <MX_USART1_UART_Init>:
{
 8000648:	b510      	push	{r4, lr}
  huart1.Instance = USART1;
 800064a:	4816      	ldr	r0, [pc, #88]	@ (80006a4 <MX_USART1_UART_Init+0x5c>)
 800064c:	4c16      	ldr	r4, [pc, #88]	@ (80006a8 <MX_USART1_UART_Init+0x60>)
  huart1.Init.BaudRate = 115200;
 800064e:	f44f 31e1 	mov.w	r1, #115200	@ 0x1c200
  huart1.Init.WordLength = UART_WORDLENGTH_8B;
 8000652:	2300      	movs	r3, #0
  huart1.Init.BaudRate = 115200;
 8000654:	e9c4 0100 	strd	r0, r1, [r4]
  huart1.Init.Mode = UART_MODE_TX_RX;
 8000658:	220c      	movs	r2, #12
  if (HAL_UART_Init(&huart1) != HAL_OK)
 800065a:	4620      	mov	r0, r4
  huart1.Init.StopBits = UART_STOPBITS_1;
 800065c:	e9c4 3302 	strd	r3, r3, [r4, #8]
  huart1.Init.Mode = UART_MODE_TX_RX;
 8000660:	e9c4 3204 	strd	r3, r2, [r4, #16]
  huart1.Init.OverSampling = UART_OVERSAMPLING_16;
 8000664:	e9c4 3306 	strd	r3, r3, [r4, #24]
  huart1.Init.ClockPrescaler = UART_PRESCALER_DIV1;
 8000668:	e9c4 3308 	strd	r3, r3, [r4, #32]
 800066c:	62a3      	str	r3, [r4, #40]	@ 0x28
  if (HAL_UART_Init(&huart1) != HAL_OK)
 800066e:	f002 fa0f 	bl	8002a90 <HAL_UART_Init>
 8000672:	b108      	cbz	r0, 8000678 <MX_USART1_UART_Init+0x30>
 8000674:	b672      	cpsid	i
  while (1)
 8000676:	e7fe      	b.n	8000676 <MX_USART1_UART_Init+0x2e>
  if (HAL_UARTEx_SetTxFifoThreshold(&huart1, UART_TXFIFO_THRESHOLD_1_8) != HAL_OK)
 8000678:	4601      	mov	r1, r0
 800067a:	4620      	mov	r0, r4
 800067c:	f002 fa60 	bl	8002b40 <HAL_UARTEx_SetTxFifoThreshold>
 8000680:	b108      	cbz	r0, 8000686 <MX_USART1_UART_Init+0x3e>
 8000682:	b672      	cpsid	i
  while (1)
 8000684:	e7fe      	b.n	8000684 <MX_USART1_UART_Init+0x3c>
  if (HAL_UARTEx_SetRxFifoThreshold(&huart1, UART_RXFIFO_THRESHOLD_1_8) != HAL_OK)
 8000686:	4601      	mov	r1, r0
 8000688:	4620      	mov	r0, r4
 800068a:	f002 fa9b 	bl	8002bc4 <HAL_UARTEx_SetRxFifoThreshold>
 800068e:	b108      	cbz	r0, 8000694 <MX_USART1_UART_Init+0x4c>
 8000690:	b672      	cpsid	i
  while (1)
 8000692:	e7fe      	b.n	8000692 <MX_USART1_UART_Init+0x4a>
  if (HAL_UARTEx_DisableFifoMode(&huart1) != HAL_OK)
 8000694:	4620      	mov	r0, r4
 8000696:	f002 fa35 	bl	8002b04 <HAL_UARTEx_DisableFifoMode>
 800069a:	b108      	cbz	r0, 80006a0 <MX_USART1_UART_Init+0x58>
 800069c:	b672      	cpsid	i
  while (1)
 800069e:	e7fe      	b.n	800069e <MX_USART1_UART_Init+0x56>
}
 80006a0:	bd10      	pop	{r4, pc}
 80006a2:	bf00      	nop
 80006a4:	40013800 	.word	0x40013800
 80006a8:	20000038 	.word	0x20000038

080006ac <MX_GPIO_Init>:
  __HAL_RCC_GPIOC_CLK_ENABLE();
 80006ac:	4b13      	ldr	r3, [pc, #76]	@ (80006fc <MX_GPIO_Init+0x50>)
 80006ae:	6cda      	ldr	r2, [r3, #76]	@ 0x4c
 80006b0:	f042 0204 	orr.w	r2, r2, #4
 80006b4:	64da      	str	r2, [r3, #76]	@ 0x4c
 80006b6:	6cda      	ldr	r2, [r3, #76]	@ 0x4c
{
 80006b8:	b084      	sub	sp, #16
  __HAL_RCC_GPIOC_CLK_ENABLE();
 80006ba:	f002 0204 	and.w	r2, r2, #4
 80006be:	9200      	str	r2, [sp, #0]
 80006c0:	9a00      	ldr	r2, [sp, #0]
  __HAL_RCC_GPIOF_CLK_ENABLE();
 80006c2:	6cda      	ldr	r2, [r3, #76]	@ 0x4c
 80006c4:	f042 0220 	orr.w	r2, r2, #32
 80006c8:	64da      	str	r2, [r3, #76]	@ 0x4c
 80006ca:	6cda      	ldr	r2, [r3, #76]	@ 0x4c
 80006cc:	f002 0220 	and.w	r2, r2, #32
 80006d0:	9201      	str	r2, [sp, #4]
 80006d2:	9a01      	ldr	r2, [sp, #4]
  __HAL_RCC_GPIOA_CLK_ENABLE();
 80006d4:	6cda      	ldr	r2, [r3, #76]	@ 0x4c
 80006d6:	f042 0201 	orr.w	r2, r2, #1
 80006da:	64da      	str	r2, [r3, #76]	@ 0x4c
 80006dc:	6cda      	ldr	r2, [r3, #76]	@ 0x4c
 80006de:	f002 0201 	and.w	r2, r2, #1
 80006e2:	9202      	str	r2, [sp, #8]
 80006e4:	9a02      	ldr	r2, [sp, #8]
  __HAL_RCC_GPIOB_CLK_ENABLE();
 80006e6:	6cda      	ldr	r2, [r3, #76]	@ 0x4c
 80006e8:	f042 0202 	orr.w	r2, r2, #2
 80006ec:	64da      	str	r2, [r3, #76]	@ 0x4c
 80006ee:	6cdb      	ldr	r3, [r3, #76]	@ 0x4c
 80006f0:	f003 0302 	and.w	r3, r3, #2
 80006f4:	9303      	str	r3, [sp, #12]
 80006f6:	9b03      	ldr	r3, [sp, #12]
}
 80006f8:	b004      	add	sp, #16
 80006fa:	4770      	bx	lr
 80006fc:	40021000 	.word	0x40021000

08000700 <main>:
{
 8000700:	b508      	push	{r3, lr}
  HAL_Init();
 8000702:	f000 fa01 	bl	8000b08 <HAL_Init>
  SystemClock_Config();
 8000706:	f7ff ff6f 	bl	80005e8 <SystemClock_Config>
  MX_GPIO_Init();
 800070a:	f7ff ffcf 	bl	80006ac <MX_GPIO_Init>
  MX_USART1_UART_Init();
 800070e:	f7ff ff9b 	bl	8000648 <MX_USART1_UART_Init>
  BSP_LED_Init(LED_GREEN);
 8000712:	2000      	movs	r0, #0
 8000714:	f000 f8e4 	bl	80008e0 <BSP_LED_Init>
  BSP_PB_Init(BUTTON_USER, BUTTON_MODE_EXTI);
 8000718:	2101      	movs	r1, #1
 800071a:	2000      	movs	r0, #0
 800071c:	f000 f90c 	bl	8000938 <BSP_PB_Init>
  BspCOMInit.BaudRate   = 115200;
 8000720:	490a      	ldr	r1, [pc, #40]	@ (800074c <main+0x4c>)
  BspCOMInit.WordLength = COM_WORDLENGTH_8B;
 8000722:	2000      	movs	r0, #0
  BspCOMInit.BaudRate   = 115200;
 8000724:	f44f 33e1 	mov.w	r3, #115200	@ 0x1c200
  BspCOMInit.WordLength = COM_WORDLENGTH_8B;
 8000728:	e9c1 3000 	strd	r3, r0, [r1]
  BspCOMInit.StopBits   = COM_STOPBITS_1;
 800072c:	6088      	str	r0, [r1, #8]
  BspCOMInit.HwFlowCtl  = COM_HWCONTROL_NONE;
 800072e:	8188      	strh	r0, [r1, #12]
  if (BSP_COM_Init(COM1, &BspCOMInit) != BSP_ERROR_NONE)
 8000730:	f000 f974 	bl	8000a1c <BSP_COM_Init>
 8000734:	b938      	cbnz	r0, 8000746 <main+0x46>
	  HAL_UART_Receive_IT(&huart1, (char*)&temp, 1);
 8000736:	4d06      	ldr	r5, [pc, #24]	@ (8000750 <main+0x50>)
 8000738:	4c06      	ldr	r4, [pc, #24]	@ (8000754 <main+0x54>)
 800073a:	2201      	movs	r2, #1
 800073c:	4629      	mov	r1, r5
 800073e:	4620      	mov	r0, r4
 8000740:	f001 f9d2 	bl	8001ae8 <HAL_UART_Receive_IT>
  while (1)
 8000744:	e7f9      	b.n	800073a <main+0x3a>
 8000746:	b672      	cpsid	i
  while (1)
 8000748:	e7fe      	b.n	8000748 <main+0x48>
 800074a:	bf00      	nop
 800074c:	200000cc 	.word	0x200000cc
 8000750:	20000398 	.word	0x20000398
 8000754:	20000038 	.word	0x20000038

08000758 <Error_Handler>:
 8000758:	b672      	cpsid	i
 800075a:	e7fe      	b.n	800075a <Error_Handler+0x2>

0800075c <HAL_MspInit>:

  /* USER CODE BEGIN MspInit 0 */

  /* USER CODE END MspInit 0 */

  __HAL_RCC_SYSCFG_CLK_ENABLE();
 800075c:	4b0b      	ldr	r3, [pc, #44]	@ (800078c <HAL_MspInit+0x30>)
 800075e:	6e1a      	ldr	r2, [r3, #96]	@ 0x60
 8000760:	f042 0201 	orr.w	r2, r2, #1
 8000764:	661a      	str	r2, [r3, #96]	@ 0x60
 8000766:	6e1a      	ldr	r2, [r3, #96]	@ 0x60
{
 8000768:	b082      	sub	sp, #8
  __HAL_RCC_SYSCFG_CLK_ENABLE();
 800076a:	f002 0201 	and.w	r2, r2, #1
 800076e:	9200      	str	r2, [sp, #0]
 8000770:	9a00      	ldr	r2, [sp, #0]
  __HAL_RCC_PWR_CLK_ENABLE();
 8000772:	6d9a      	ldr	r2, [r3, #88]	@ 0x58
 8000774:	f042 5280 	orr.w	r2, r2, #268435456	@ 0x10000000
 8000778:	659a      	str	r2, [r3, #88]	@ 0x58
 800077a:	6d9b      	ldr	r3, [r3, #88]	@ 0x58
 800077c:	f003 5380 	and.w	r3, r3, #268435456	@ 0x10000000
 8000780:	9301      	str	r3, [sp, #4]
 8000782:	9b01      	ldr	r3, [sp, #4]
  HAL_PWREx_DisableUCPDDeadBattery();

  /* USER CODE BEGIN MspInit 1 */

  /* USER CODE END MspInit 1 */
}
 8000784:	b002      	add	sp, #8
  HAL_PWREx_DisableUCPDDeadBattery();
 8000786:	f000 bc75 	b.w	8001074 <HAL_PWREx_DisableUCPDDeadBattery>
 800078a:	bf00      	nop
 800078c:	40021000 	.word	0x40021000

08000790 <HAL_UART_MspInit>:
* This function configures the hardware resources used in this example
* @param huart: UART handle pointer
* @retval None
*/
void HAL_UART_MspInit(UART_HandleTypeDef* huart)
{
 8000790:	b510      	push	{r4, lr}
 8000792:	4604      	mov	r4, r0
 8000794:	b09c      	sub	sp, #112	@ 0x70
  GPIO_InitTypeDef GPIO_InitStruct = {0};
 8000796:	2100      	movs	r1, #0
  RCC_PeriphCLKInitTypeDef PeriphClkInit = {0};
 8000798:	2254      	movs	r2, #84	@ 0x54
 800079a:	a807      	add	r0, sp, #28
  GPIO_InitTypeDef GPIO_InitStruct = {0};
 800079c:	e9cd 1102 	strd	r1, r1, [sp, #8]
 80007a0:	e9cd 1104 	strd	r1, r1, [sp, #16]
 80007a4:	9106      	str	r1, [sp, #24]
  RCC_PeriphCLKInitTypeDef PeriphClkInit = {0};
 80007a6:	f002 fa4f 	bl	8002c48 <memset>
  if(huart->Instance==USART1)
 80007aa:	4b21      	ldr	r3, [pc, #132]	@ (8000830 <HAL_UART_MspInit+0xa0>)
 80007ac:	6822      	ldr	r2, [r4, #0]
 80007ae:	429a      	cmp	r2, r3
 80007b0:	d001      	beq.n	80007b6 <HAL_UART_MspInit+0x26>

  /* USER CODE END USART1_MspInit 1 */

  }

}
 80007b2:	b01c      	add	sp, #112	@ 0x70
 80007b4:	bd10      	pop	{r4, pc}
    PeriphClkInit.PeriphClockSelection = RCC_PERIPHCLK_USART1;
 80007b6:	2301      	movs	r3, #1
    if (HAL_RCCEx_PeriphCLKConfig(&PeriphClkInit) != HAL_OK)
 80007b8:	a807      	add	r0, sp, #28
    PeriphClkInit.PeriphClockSelection = RCC_PERIPHCLK_USART1;
 80007ba:	9307      	str	r3, [sp, #28]
    if (HAL_RCCEx_PeriphCLKConfig(&PeriphClkInit) != HAL_OK)
 80007bc:	f001 f808 	bl	80017d0 <HAL_RCCEx_PeriphCLKConfig>
 80007c0:	bb50      	cbnz	r0, 8000818 <HAL_UART_MspInit+0x88>
    __HAL_RCC_USART1_CLK_ENABLE();
 80007c2:	4b1c      	ldr	r3, [pc, #112]	@ (8000834 <HAL_UART_MspInit+0xa4>)
    HAL_GPIO_Init(GPIOC, &GPIO_InitStruct);
 80007c4:	481c      	ldr	r0, [pc, #112]	@ (8000838 <HAL_UART_MspInit+0xa8>)
    __HAL_RCC_USART1_CLK_ENABLE();
 80007c6:	6e1a      	ldr	r2, [r3, #96]	@ 0x60
 80007c8:	f442 4280 	orr.w	r2, r2, #16384	@ 0x4000
 80007cc:	661a      	str	r2, [r3, #96]	@ 0x60
 80007ce:	6e1a      	ldr	r2, [r3, #96]	@ 0x60
 80007d0:	f402 4280 	and.w	r2, r2, #16384	@ 0x4000
 80007d4:	9200      	str	r2, [sp, #0]
 80007d6:	9a00      	ldr	r2, [sp, #0]
    __HAL_RCC_GPIOC_CLK_ENABLE();
 80007d8:	6cda      	ldr	r2, [r3, #76]	@ 0x4c
    GPIO_InitStruct.Pin = GPIO_PIN_4|GPIO_PIN_5;
 80007da:	ed9f 7b11 	vldr	d7, [pc, #68]	@ 8000820 <HAL_UART_MspInit+0x90>
    __HAL_RCC_GPIOC_CLK_ENABLE();
 80007de:	f042 0204 	orr.w	r2, r2, #4
 80007e2:	64da      	str	r2, [r3, #76]	@ 0x4c
 80007e4:	6cdb      	ldr	r3, [r3, #76]	@ 0x4c
    GPIO_InitStruct.Pin = GPIO_PIN_4|GPIO_PIN_5;
 80007e6:	ed8d 7b02 	vstr	d7, [sp, #8]
 80007ea:	ed9f 7b0f 	vldr	d7, [pc, #60]	@ 8000828 <HAL_UART_MspInit+0x98>
    __HAL_RCC_GPIOC_CLK_ENABLE();
 80007ee:	f003 0304 	and.w	r3, r3, #4
 80007f2:	9301      	str	r3, [sp, #4]
    HAL_GPIO_Init(GPIOC, &GPIO_InitStruct);
 80007f4:	a902      	add	r1, sp, #8
    GPIO_InitStruct.Alternate = GPIO_AF7_USART1;
 80007f6:	2307      	movs	r3, #7
    GPIO_InitStruct.Pin = GPIO_PIN_4|GPIO_PIN_5;
 80007f8:	ed8d 7b04 	vstr	d7, [sp, #16]
    GPIO_InitStruct.Alternate = GPIO_AF7_USART1;
 80007fc:	9306      	str	r3, [sp, #24]
    __HAL_RCC_GPIOC_CLK_ENABLE();
 80007fe:	9a01      	ldr	r2, [sp, #4]
    HAL_GPIO_Init(GPIOC, &GPIO_InitStruct);
 8000800:	f000 fab8 	bl	8000d74 <HAL_GPIO_Init>
    HAL_NVIC_SetPriority(USART1_IRQn, 0, 0);
 8000804:	2200      	movs	r2, #0
 8000806:	4611      	mov	r1, r2
 8000808:	2025      	movs	r0, #37	@ 0x25
 800080a:	f000 f9b1 	bl	8000b70 <HAL_NVIC_SetPriority>
    HAL_NVIC_EnableIRQ(USART1_IRQn);
 800080e:	2025      	movs	r0, #37	@ 0x25
 8000810:	f000 f9ea 	bl	8000be8 <HAL_NVIC_EnableIRQ>
}
 8000814:	b01c      	add	sp, #112	@ 0x70
 8000816:	bd10      	pop	{r4, pc}
      Error_Handler();
 8000818:	f7ff ff9e 	bl	8000758 <Error_Handler>
 800081c:	e7d1      	b.n	80007c2 <HAL_UART_MspInit+0x32>
 800081e:	bf00      	nop
 8000820:	00000030 	.word	0x00000030
 8000824:	00000002 	.word	0x00000002
	...
 8000830:	40013800 	.word	0x40013800
 8000834:	40021000 	.word	0x40021000
 8000838:	48000800 	.word	0x48000800

0800083c <NMI_Handler>:
{
  /* USER CODE BEGIN NonMaskableInt_IRQn 0 */

  /* USER CODE END NonMaskableInt_IRQn 0 */
  /* USER CODE BEGIN NonMaskableInt_IRQn 1 */
   while (1)
 800083c:	e7fe      	b.n	800083c <NMI_Handler>
 800083e:	bf00      	nop

08000840 <HardFault_Handler>:
void HardFault_Handler(void)
{
  /* USER CODE BEGIN HardFault_IRQn 0 */

  /* USER CODE END HardFault_IRQn 0 */
  while (1)
 8000840:	e7fe      	b.n	8000840 <HardFault_Handler>
 8000842:	bf00      	nop

08000844 <MemManage_Handler>:
void MemManage_Handler(void)
{
  /* USER CODE BEGIN MemoryManagement_IRQn 0 */

  /* USER CODE END MemoryManagement_IRQn 0 */
  while (1)
 8000844:	e7fe      	b.n	8000844 <MemManage_Handler>
 8000846:	bf00      	nop

08000848 <BusFault_Handler>:
void BusFault_Handler(void)
{
  /* USER CODE BEGIN BusFault_IRQn 0 */

  /* USER CODE END BusFault_IRQn 0 */
  while (1)
 8000848:	e7fe      	b.n	8000848 <BusFault_Handler>
 800084a:	bf00      	nop

0800084c <UsageFault_Handler>:
void UsageFault_Handler(void)
{
  /* USER CODE BEGIN UsageFault_IRQn 0 */

  /* USER CODE END UsageFault_IRQn 0 */
  while (1)
 800084c:	e7fe      	b.n	800084c <UsageFault_Handler>
 800084e:	bf00      	nop

08000850 <SVC_Handler>:

  /* USER CODE END SVCall_IRQn 0 */
  /* USER CODE BEGIN SVCall_IRQn 1 */

  /* USER CODE END SVCall_IRQn 1 */
}
 8000850:	4770      	bx	lr
 8000852:	bf00      	nop

08000854 <DebugMon_Handler>:

/**
  * @brief This function handles Debug monitor.
  */
void DebugMon_Handler(void)
 8000854:	4770      	bx	lr
 8000856:	bf00      	nop

08000858 <PendSV_Handler>:
}

/**
  * @brief This function handles Pendable request for system service.
  */
void PendSV_Handler(void)
 8000858:	4770      	bx	lr
 800085a:	bf00      	nop

0800085c <SysTick_Handler>:
void SysTick_Handler(void)
{
  /* USER CODE BEGIN SysTick_IRQn 0 */

  /* USER CODE END SysTick_IRQn 0 */
  HAL_IncTick();
 800085c:	f000 b964 	b.w	8000b28 <HAL_IncTick>

08000860 <USART1_IRQHandler>:
void USART1_IRQHandler(void)
{
  /* USER CODE BEGIN USART1_IRQn 0 */

  /* USER CODE END USART1_IRQn 0 */
  HAL_UART_IRQHandler(&huart1);
 8000860:	4801      	ldr	r0, [pc, #4]	@ (8000868 <USART1_IRQHandler+0x8>)
 8000862:	f001 ba09 	b.w	8001c78 <HAL_UART_IRQHandler>
 8000866:	bf00      	nop
 8000868:	20000038 	.word	0x20000038

0800086c <EXTI15_10_IRQHandler>:
void EXTI15_10_IRQHandler(void)
{
  /* USER CODE BEGIN EXTI15_10_IRQn 0 */

  /* USER CODE END EXTI15_10_IRQn 0 */
  BSP_PB_IRQHandler(BUTTON_USER);
 800086c:	2000      	movs	r0, #0
 800086e:	f000 b8ad 	b.w	80009cc <BSP_PB_IRQHandler>
 8000872:	bf00      	nop

08000874 <SystemInit>:

void SystemInit(void)
{
  /* FPU settings ------------------------------------------------------------*/
  #if (__FPU_PRESENT == 1) && (__FPU_USED == 1)
    SCB->CPACR |= ((3UL << (10*2))|(3UL << (11*2)));  /* set CP10 and CP11 Full Access */
 8000874:	4a03      	ldr	r2, [pc, #12]	@ (8000884 <SystemInit+0x10>)
 8000876:	f8d2 3088 	ldr.w	r3, [r2, #136]	@ 0x88
 800087a:	f443 0370 	orr.w	r3, r3, #15728640	@ 0xf00000
 800087e:	f8c2 3088 	str.w	r3, [r2, #136]	@ 0x88

  /* Configure the Vector Table location add offset address ------------------*/
#if defined(USER_VECT_TAB_ADDRESS)
  SCB->VTOR = VECT_TAB_BASE_ADDRESS | VECT_TAB_OFFSET; /* Vector Table Relocation in Internal SRAM */
#endif /* USER_VECT_TAB_ADDRESS */
}
 8000882:	4770      	bx	lr
 8000884:	e000ed00 	.word	0xe000ed00

08000888 <Reset_Handler>:
*/

    .section	.text.Reset_Handler
	.weak	Reset_Handler
	.type	Reset_Handler, %function
Reset_Handler:  ldr   r0, =_estack
 8000888:	480d      	ldr	r0, [pc, #52]	@ (80008c0 <LoopForever+0x2>)
  mov   sp, r0          /* set stack pointer */
 800088a:	4685      	mov	sp, r0

/* Call the clock system initialization function.*/
    bl  SystemInit
 800088c:	f7ff fff2 	bl	8000874 <SystemInit>

/* Copy the data segment initializers from flash to SRAM */
  ldr r0, =_sdata
 8000890:	480c      	ldr	r0, [pc, #48]	@ (80008c4 <LoopForever+0x6>)
  ldr r1, =_edata
 8000892:	490d      	ldr	r1, [pc, #52]	@ (80008c8 <LoopForever+0xa>)
  ldr r2, =_sidata
 8000894:	4a0d      	ldr	r2, [pc, #52]	@ (80008cc <LoopForever+0xe>)
  movs r3, #0
 8000896:	2300      	movs	r3, #0
  b	LoopCopyDataInit
 8000898:	e002      	b.n	80008a0 <LoopCopyDataInit>

0800089a <CopyDataInit>:

CopyDataInit:
  ldr r4, [r2, r3]
 800089a:	58d4      	ldr	r4, [r2, r3]
  str r4, [r0, r3]
 800089c:	50c4      	str	r4, [r0, r3]
  adds r3, r3, #4
 800089e:	3304      	adds	r3, #4

080008a0 <LoopCopyDataInit>:

LoopCopyDataInit:
  adds r4, r0, r3
 80008a0:	18c4      	adds	r4, r0, r3
  cmp r4, r1
 80008a2:	428c      	cmp	r4, r1
  bcc CopyDataInit
 80008a4:	d3f9      	bcc.n	800089a <CopyDataInit>
  
/* Zero fill the bss segment. */
  ldr r2, =_sbss
 80008a6:	4a0a      	ldr	r2, [pc, #40]	@ (80008d0 <LoopForever+0x12>)
  ldr r4, =_ebss
 80008a8:	4c0a      	ldr	r4, [pc, #40]	@ (80008d4 <LoopForever+0x16>)
  movs r3, #0
 80008aa:	2300      	movs	r3, #0
  b LoopFillZerobss
 80008ac:	e001      	b.n	80008b2 <LoopFillZerobss>

080008ae <FillZerobss>:

FillZerobss:
  str  r3, [r2]
 80008ae:	6013      	str	r3, [r2, #0]
  adds r2, r2, #4
 80008b0:	3204      	adds	r2, #4

080008b2 <LoopFillZerobss>:

LoopFillZerobss:
  cmp r2, r4
 80008b2:	42a2      	cmp	r2, r4
  bcc FillZerobss
 80008b4:	d3fb      	bcc.n	80008ae <FillZerobss>

/* Call static constructors */
    bl __libc_init_array
 80008b6:	f002 f9cf 	bl	8002c58 <__libc_init_array>
/* Call the application's entry point.*/
	bl	main
 80008ba:	f7ff ff21 	bl	8000700 <main>

080008be <LoopForever>:

LoopForever:
    b LoopForever
 80008be:	e7fe      	b.n	80008be <LoopForever>
Reset_Handler:  ldr   r0, =_estack
 80008c0:	20020000 	.word	0x20020000
  ldr r0, =_sdata
 80008c4:	20000000 	.word	0x20000000
  ldr r1, =_edata
 80008c8:	20000014 	.word	0x20000014
  ldr r2, =_sidata
 80008cc:	08002d08 	.word	0x08002d08
  ldr r2, =_sbss
 80008d0:	20000018 	.word	0x20000018
  ldr r4, =_ebss
 80008d4:	20000454 	.word	0x20000454

080008d8 <ADC1_2_IRQHandler>:
 * @retval : None
*/
    .section	.text.Default_Handler,"ax",%progbits
Default_Handler:
Infinite_Loop:
	b	Infinite_Loop
 80008d8:	e7fe      	b.n	80008d8 <ADC1_2_IRQHandler>
 80008da:	0000      	movs	r0, r0
 80008dc:	0000      	movs	r0, r0
	...

080008e0 <BSP_LED_Init>:
int32_t BSP_LED_Init(Led_TypeDef Led)
{
  GPIO_InitTypeDef  gpio_init_structure;

  /* Enable the GPIO LED Clock */
  LED2_GPIO_CLK_ENABLE();
 80008e0:	4b13      	ldr	r3, [pc, #76]	@ (8000930 <BSP_LED_Init+0x50>)
{
 80008e2:	b500      	push	{lr}
  LED2_GPIO_CLK_ENABLE();
 80008e4:	6cda      	ldr	r2, [r3, #76]	@ 0x4c
 80008e6:	f042 0201 	orr.w	r2, r2, #1
 80008ea:	64da      	str	r2, [r3, #76]	@ 0x4c
 80008ec:	6cdb      	ldr	r3, [r3, #76]	@ 0x4c
{
 80008ee:	b089      	sub	sp, #36	@ 0x24

  /* Configure the GPIO_LED pin */
  gpio_init_structure.Pin   = LED_PIN[Led];
 80008f0:	ed9f 7b0d 	vldr	d7, [pc, #52]	@ 8000928 <BSP_LED_Init+0x48>
  LED2_GPIO_CLK_ENABLE();
 80008f4:	f003 0301 	and.w	r3, r3, #1
 80008f8:	9301      	str	r3, [sp, #4]
  gpio_init_structure.Mode  = GPIO_MODE_OUTPUT_PP;
  gpio_init_structure.Pull  = GPIO_NOPULL;
  gpio_init_structure.Speed = GPIO_SPEED_FREQ_VERY_HIGH;

  HAL_GPIO_Init(LED_PORT[Led], &gpio_init_structure);
 80008fa:	a902      	add	r1, sp, #8
  gpio_init_structure.Pin   = LED_PIN[Led];
 80008fc:	2200      	movs	r2, #0
  HAL_GPIO_Init(LED_PORT[Led], &gpio_init_structure);
 80008fe:	f04f 4090 	mov.w	r0, #1207959552	@ 0x48000000
  gpio_init_structure.Pin   = LED_PIN[Led];
 8000902:	2303      	movs	r3, #3
 8000904:	e9cd 2304 	strd	r2, r3, [sp, #16]
 8000908:	ed8d 7b02 	vstr	d7, [sp, #8]
  LED2_GPIO_CLK_ENABLE();
 800090c:	9b01      	ldr	r3, [sp, #4]
  HAL_GPIO_Init(LED_PORT[Led], &gpio_init_structure);
 800090e:	f000 fa31 	bl	8000d74 <HAL_GPIO_Init>
  HAL_GPIO_WritePin(LED_PORT[Led], LED_PIN[Led], GPIO_PIN_RESET);
 8000912:	f04f 4090 	mov.w	r0, #1207959552	@ 0x48000000
 8000916:	2200      	movs	r2, #0
 8000918:	2120      	movs	r1, #32
 800091a:	f000 fb33 	bl	8000f84 <HAL_GPIO_WritePin>

  return BSP_ERROR_NONE;
}
 800091e:	2000      	movs	r0, #0
 8000920:	b009      	add	sp, #36	@ 0x24
 8000922:	f85d fb04 	ldr.w	pc, [sp], #4
 8000926:	bf00      	nop
 8000928:	00000020 	.word	0x00000020
 800092c:	00000001 	.word	0x00000001
 8000930:	40021000 	.word	0x40021000
 8000934:	00000000 	.word	0x00000000

08000938 <BSP_PB_Init>:
  static BSP_EXTI_LineCallback ButtonCallback[BUTTONn] = {BUTTON_USER_EXTI_Callback};
  static uint32_t BSP_BUTTON_PRIO [BUTTONn] = {BSP_BUTTON_USER_IT_PRIORITY};
  static const uint32_t BUTTON_EXTI_LINE[BUTTONn] = {USER_BUTTON_EXTI_LINE};

  /* Enable the BUTTON Clock */
  USER_BUTTON_GPIO_CLK_ENABLE();
 8000938:	4b1f      	ldr	r3, [pc, #124]	@ (80009b8 <BSP_PB_Init+0x80>)
{
 800093a:	b510      	push	{r4, lr}
  USER_BUTTON_GPIO_CLK_ENABLE();
 800093c:	6cda      	ldr	r2, [r3, #76]	@ 0x4c
 800093e:	f042 0204 	orr.w	r2, r2, #4
 8000942:	64da      	str	r2, [r3, #76]	@ 0x4c
 8000944:	6cdb      	ldr	r3, [r3, #76]	@ 0x4c
{
 8000946:	b088      	sub	sp, #32

  gpio_init_structure.Pin = BUTTON_PIN[Button];
  gpio_init_structure.Pull = GPIO_PULLDOWN;
 8000948:	ed9f 7b19 	vldr	d7, [pc, #100]	@ 80009b0 <BSP_PB_Init+0x78>
  USER_BUTTON_GPIO_CLK_ENABLE();
 800094c:	f003 0304 	and.w	r3, r3, #4
  gpio_init_structure.Pin = BUTTON_PIN[Button];
 8000950:	f44f 5200 	mov.w	r2, #8192	@ 0x2000
  USER_BUTTON_GPIO_CLK_ENABLE();
 8000954:	9301      	str	r3, [sp, #4]
  gpio_init_structure.Pull = GPIO_PULLDOWN;
 8000956:	ed8d 7b04 	vstr	d7, [sp, #16]
  USER_BUTTON_GPIO_CLK_ENABLE();
 800095a:	9b01      	ldr	r3, [sp, #4]
  gpio_init_structure.Pin = BUTTON_PIN[Button];
 800095c:	9202      	str	r2, [sp, #8]
  gpio_init_structure.Speed = GPIO_SPEED_FREQ_HIGH;

  if(ButtonMode == BUTTON_MODE_GPIO)
 800095e:	b941      	cbnz	r1, 8000972 <BSP_PB_Init+0x3a>
  {
    /* Configure Button pin as input */
    gpio_init_structure.Mode = GPIO_MODE_INPUT;
 8000960:	460b      	mov	r3, r1
    HAL_GPIO_Init(BUTTON_PORT[Button], &gpio_init_structure);
 8000962:	4816      	ldr	r0, [pc, #88]	@ (80009bc <BSP_PB_Init+0x84>)
    gpio_init_structure.Mode = GPIO_MODE_INPUT;
 8000964:	9303      	str	r3, [sp, #12]
    HAL_GPIO_Init(BUTTON_PORT[Button], &gpio_init_structure);
 8000966:	a902      	add	r1, sp, #8
 8000968:	f000 fa04 	bl	8000d74 <HAL_GPIO_Init>
    HAL_NVIC_SetPriority((BUTTON_IRQn[Button]), BSP_BUTTON_PRIO[Button], 0x00);
    HAL_NVIC_EnableIRQ((BUTTON_IRQn[Button]));
  }

  return BSP_ERROR_NONE;
}
 800096c:	2000      	movs	r0, #0
 800096e:	b008      	add	sp, #32
 8000970:	bd10      	pop	{r4, pc}
    HAL_GPIO_Init(BUTTON_PORT[Button], &gpio_init_structure);
 8000972:	a902      	add	r1, sp, #8
    gpio_init_structure.Mode = GPIO_MODE_IT_RISING;
 8000974:	f44f 1388 	mov.w	r3, #1114112	@ 0x110000
 8000978:	4604      	mov	r4, r0
    HAL_GPIO_Init(BUTTON_PORT[Button], &gpio_init_structure);
 800097a:	4810      	ldr	r0, [pc, #64]	@ (80009bc <BSP_PB_Init+0x84>)
    gpio_init_structure.Mode = GPIO_MODE_IT_RISING;
 800097c:	9303      	str	r3, [sp, #12]
    HAL_GPIO_Init(BUTTON_PORT[Button], &gpio_init_structure);
 800097e:	f000 f9f9 	bl	8000d74 <HAL_GPIO_Init>
    (void)HAL_EXTI_GetHandle(&hpb_exti[Button], BUTTON_EXTI_LINE[Button]);
 8000982:	4b0f      	ldr	r3, [pc, #60]	@ (80009c0 <BSP_PB_Init+0x88>)
 8000984:	490f      	ldr	r1, [pc, #60]	@ (80009c4 <BSP_PB_Init+0x8c>)
 8000986:	eb03 04c4 	add.w	r4, r3, r4, lsl #3
 800098a:	4620      	mov	r0, r4
 800098c:	f000 f9d2 	bl	8000d34 <HAL_EXTI_GetHandle>
    (void)HAL_EXTI_RegisterCallback(&hpb_exti[Button],  HAL_EXTI_COMMON_CB_ID, ButtonCallback[Button]);
 8000990:	4a0d      	ldr	r2, [pc, #52]	@ (80009c8 <BSP_PB_Init+0x90>)
 8000992:	2100      	movs	r1, #0
 8000994:	4620      	mov	r0, r4
 8000996:	f000 f9c5 	bl	8000d24 <HAL_EXTI_RegisterCallback>
    HAL_NVIC_SetPriority((BUTTON_IRQn[Button]), BSP_BUTTON_PRIO[Button], 0x00);
 800099a:	2200      	movs	r2, #0
 800099c:	210f      	movs	r1, #15
 800099e:	2028      	movs	r0, #40	@ 0x28
 80009a0:	f000 f8e6 	bl	8000b70 <HAL_NVIC_SetPriority>
    HAL_NVIC_EnableIRQ((BUTTON_IRQn[Button]));
 80009a4:	2028      	movs	r0, #40	@ 0x28
 80009a6:	f000 f91f 	bl	8000be8 <HAL_NVIC_EnableIRQ>
}
 80009aa:	2000      	movs	r0, #0
 80009ac:	b008      	add	sp, #32
 80009ae:	bd10      	pop	{r4, pc}
 80009b0:	00000002 	.word	0x00000002
 80009b4:	00000002 	.word	0x00000002
 80009b8:	40021000 	.word	0x40021000
 80009bc:	48000800 	.word	0x48000800
 80009c0:	2000044c 	.word	0x2000044c
 80009c4:	0600000d 	.word	0x0600000d
 80009c8:	080009e1 	.word	0x080009e1

080009cc <BSP_PB_IRQHandler>:
  * @param  Button Specifies the pin connected EXTI line
  * @retval None
  */
void BSP_PB_IRQHandler(Button_TypeDef Button)
{
  HAL_EXTI_IRQHandler(&hpb_exti[Button]);
 80009cc:	4b02      	ldr	r3, [pc, #8]	@ (80009d8 <BSP_PB_IRQHandler+0xc>)
 80009ce:	eb03 00c0 	add.w	r0, r3, r0, lsl #3
 80009d2:	f000 b9b5 	b.w	8000d40 <HAL_EXTI_IRQHandler>
 80009d6:	bf00      	nop
 80009d8:	2000044c 	.word	0x2000044c

080009dc <BSP_PB_Callback>:
  /* Prevent unused argument(s) compilation warning */
  UNUSED(Button);

  /* This function should be implemented by the user application.
     It is called into this driver when an event on Button is triggered. */
}
 80009dc:	4770      	bx	lr
 80009de:	bf00      	nop

080009e0 <BUTTON_USER_EXTI_Callback>:
/**
  * @brief  Key EXTI line detection callbacks.
  * @retval BSP status
  */
static void BUTTON_USER_EXTI_Callback(void)
{
 80009e0:	b508      	push	{r3, lr}
  BSP_PB_Callback(BUTTON_USER);
 80009e2:	2000      	movs	r0, #0
 80009e4:	f7ff fffa 	bl	80009dc <BSP_PB_Callback>
}
 80009e8:	bd08      	pop	{r3, pc}
 80009ea:	bf00      	nop

080009ec <MX_LPUART1_Init>:
{
 80009ec:	b430      	push	{r4, r5}
 huart->Instance          = COM_USART[COM1];
 80009ee:	4a0a      	ldr	r2, [pc, #40]	@ (8000a18 <MX_LPUART1_Init+0x2c>)
 80009f0:	6002      	str	r2, [r0, #0]
 huart->Init.BaudRate     = COM_Init->BaudRate;
 80009f2:	e9d1 2400 	ldrd	r2, r4, [r1]
 huart->Init.Parity       = (uint32_t)COM_Init->Parity;
 80009f6:	894d      	ldrh	r5, [r1, #10]
 huart->Init.BaudRate     = COM_Init->BaudRate;
 80009f8:	6042      	str	r2, [r0, #4]
 huart->Init.StopBits     = (uint32_t)COM_Init->StopBits;
 80009fa:	890a      	ldrh	r2, [r1, #8]
 huart->Init.HwFlowCtl    = (uint32_t)COM_Init->HwFlowCtl;
 80009fc:	8989      	ldrh	r1, [r1, #12]
 huart->Init.Parity       = (uint32_t)COM_Init->Parity;
 80009fe:	6105      	str	r5, [r0, #16]
 huart->Init.StopBits     = (uint32_t)COM_Init->StopBits;
 8000a00:	e9c0 4202 	strd	r4, r2, [r0, #8]
 huart->Init.OverSampling = UART_OVERSAMPLING_8;
 8000a04:	f44f 4200 	mov.w	r2, #32768	@ 0x8000
 8000a08:	e9c0 1206 	strd	r1, r2, [r0, #24]
 huart->Init.Mode         = UART_MODE_TX_RX;
 8000a0c:	220c      	movs	r2, #12
}
 8000a0e:	bc30      	pop	{r4, r5}
 huart->Init.Mode         = UART_MODE_TX_RX;
 8000a10:	6142      	str	r2, [r0, #20]
 return HAL_UART_Init(huart);
 8000a12:	f002 b83d 	b.w	8002a90 <HAL_UART_Init>
 8000a16:	bf00      	nop
 8000a18:	40008000 	.word	0x40008000

08000a1c <BSP_COM_Init>:
  if(COM > COMn)
 8000a1c:	2801      	cmp	r0, #1
 8000a1e:	d845      	bhi.n	8000aac <BSP_COM_Init+0x90>

  /* Prevent unused argument(s) compilation warning */
  UNUSED(huart);

  /* Enable GPIO clock */
  COM1_TX_GPIO_CLK_ENABLE();
 8000a20:	4b24      	ldr	r3, [pc, #144]	@ (8000ab4 <BSP_COM_Init+0x98>)
{
 8000a22:	b570      	push	{r4, r5, r6, lr}
  COM1_TX_GPIO_CLK_ENABLE();
 8000a24:	6cda      	ldr	r2, [r3, #76]	@ 0x4c
 8000a26:	f042 0201 	orr.w	r2, r2, #1
 8000a2a:	64da      	str	r2, [r3, #76]	@ 0x4c
 8000a2c:	6cda      	ldr	r2, [r3, #76]	@ 0x4c
{
 8000a2e:	b08a      	sub	sp, #40	@ 0x28
  COM1_TX_GPIO_CLK_ENABLE();
 8000a30:	f002 0201 	and.w	r2, r2, #1
 8000a34:	9201      	str	r2, [sp, #4]
 8000a36:	9a01      	ldr	r2, [sp, #4]
  COM1_RX_GPIO_CLK_ENABLE();
 8000a38:	6cda      	ldr	r2, [r3, #76]	@ 0x4c
 8000a3a:	f042 0201 	orr.w	r2, r2, #1
 8000a3e:	64da      	str	r2, [r3, #76]	@ 0x4c
 8000a40:	6cda      	ldr	r2, [r3, #76]	@ 0x4c
 8000a42:	f002 0201 	and.w	r2, r2, #1
 8000a46:	9202      	str	r2, [sp, #8]
 8000a48:	9a02      	ldr	r2, [sp, #8]

  /* Enable USART clock */
  COM1_CLK_ENABLE();
 8000a4a:	6dda      	ldr	r2, [r3, #92]	@ 0x5c
 8000a4c:	f042 0201 	orr.w	r2, r2, #1
 8000a50:	65da      	str	r2, [r3, #92]	@ 0x5c
 8000a52:	6ddb      	ldr	r3, [r3, #92]	@ 0x5c
 8000a54:	f003 0301 	and.w	r3, r3, #1
 8000a58:	9303      	str	r3, [sp, #12]
 8000a5a:	460d      	mov	r5, r1

  /* Configure USART Tx as alternate function */
  gpio_init_structure.Pin       = COM1_TX_PIN;
 8000a5c:	2304      	movs	r3, #4
  gpio_init_structure.Mode      = GPIO_MODE_AF_PP;
 8000a5e:	2102      	movs	r1, #2
 8000a60:	4604      	mov	r4, r0
 8000a62:	9105      	str	r1, [sp, #20]
  gpio_init_structure.Speed     = GPIO_SPEED_FREQ_HIGH;
  gpio_init_structure.Pull      = GPIO_PULLUP;
  gpio_init_structure.Alternate = COM1_TX_AF;
 8000a64:	260c      	movs	r6, #12
  gpio_init_structure.Pin       = COM1_TX_PIN;
 8000a66:	9304      	str	r3, [sp, #16]
  gpio_init_structure.Speed     = GPIO_SPEED_FREQ_HIGH;
 8000a68:	9107      	str	r1, [sp, #28]
  COM1_CLK_ENABLE();
 8000a6a:	9b03      	ldr	r3, [sp, #12]
  gpio_init_structure.Alternate = COM1_TX_AF;
 8000a6c:	9608      	str	r6, [sp, #32]
  gpio_init_structure.Pull      = GPIO_PULLUP;
 8000a6e:	2301      	movs	r3, #1
  HAL_GPIO_Init(COM1_TX_GPIO_PORT, &gpio_init_structure);
 8000a70:	a904      	add	r1, sp, #16
 8000a72:	f04f 4090 	mov.w	r0, #1207959552	@ 0x48000000
  gpio_init_structure.Pull      = GPIO_PULLUP;
 8000a76:	9306      	str	r3, [sp, #24]
  HAL_GPIO_Init(COM1_TX_GPIO_PORT, &gpio_init_structure);
 8000a78:	f000 f97c 	bl	8000d74 <HAL_GPIO_Init>

  /* Configure USART Rx as alternate function */
  gpio_init_structure.Pin = COM1_RX_PIN;
 8000a7c:	2208      	movs	r2, #8
  gpio_init_structure.Mode = GPIO_MODE_AF_PP;
  gpio_init_structure.Alternate = COM1_RX_AF;
  HAL_GPIO_Init(COM1_RX_GPIO_PORT, &gpio_init_structure);
 8000a7e:	a904      	add	r1, sp, #16
  gpio_init_structure.Pin = COM1_RX_PIN;
 8000a80:	2302      	movs	r3, #2
  HAL_GPIO_Init(COM1_RX_GPIO_PORT, &gpio_init_structure);
 8000a82:	f04f 4090 	mov.w	r0, #1207959552	@ 0x48000000
  gpio_init_structure.Pin = COM1_RX_PIN;
 8000a86:	e9cd 2304 	strd	r2, r3, [sp, #16]
  gpio_init_structure.Alternate = COM1_RX_AF;
 8000a8a:	9608      	str	r6, [sp, #32]
  HAL_GPIO_Init(COM1_RX_GPIO_PORT, &gpio_init_structure);
 8000a8c:	f000 f972 	bl	8000d74 <HAL_GPIO_Init>
    COM1_MspInit(&hcom_uart[COM]);
 8000a90:	4b09      	ldr	r3, [pc, #36]	@ (8000ab8 <BSP_COM_Init+0x9c>)
 8000a92:	2094      	movs	r0, #148	@ 0x94
    if(MX_LPUART1_Init(&hcom_uart[COM], COM_Init) != HAL_OK)
 8000a94:	4629      	mov	r1, r5
 8000a96:	fb00 3004 	mla	r0, r0, r4, r3
 8000a9a:	f7ff ffa7 	bl	80009ec <MX_LPUART1_Init>
  int32_t ret = BSP_ERROR_NONE;
 8000a9e:	2800      	cmp	r0, #0
 8000aa0:	bf14      	ite	ne
 8000aa2:	f06f 0003 	mvnne.w	r0, #3
 8000aa6:	2000      	moveq	r0, #0
}
 8000aa8:	b00a      	add	sp, #40	@ 0x28
 8000aaa:	bd70      	pop	{r4, r5, r6, pc}
    ret = BSP_ERROR_WRONG_PARAM;
 8000aac:	f06f 0001 	mvn.w	r0, #1
}
 8000ab0:	4770      	bx	lr
 8000ab2:	bf00      	nop
 8000ab4:	40021000 	.word	0x40021000
 8000ab8:	200003b8 	.word	0x200003b8

08000abc <HAL_InitTick>:
  *       implementation  in user file.
  * @param TickPriority: Tick interrupt priority.
  * @retval HAL status
  */
__weak HAL_StatusTypeDef HAL_InitTick(uint32_t TickPriority)
{
 8000abc:	b538      	push	{r3, r4, r5, lr}
  HAL_StatusTypeDef  status = HAL_OK;

  if (uwTickFreq != 0U)
 8000abe:	4b0f      	ldr	r3, [pc, #60]	@ (8000afc <HAL_InitTick+0x40>)
 8000ac0:	681b      	ldr	r3, [r3, #0]
 8000ac2:	b90b      	cbnz	r3, 8000ac8 <HAL_InitTick+0xc>
        status = HAL_ERROR;
      }
    }
    else
    {
      status = HAL_ERROR;
 8000ac4:	2001      	movs	r0, #1
    status = HAL_ERROR;
  }

  /* Return function status */
  return status;
}
 8000ac6:	bd38      	pop	{r3, r4, r5, pc}
    if (HAL_SYSTICK_Config(SystemCoreClock / (1000U / uwTickFreq)) == 0U)
 8000ac8:	490d      	ldr	r1, [pc, #52]	@ (8000b00 <HAL_InitTick+0x44>)
 8000aca:	f44f 727a 	mov.w	r2, #1000	@ 0x3e8
 8000ace:	4605      	mov	r5, r0
 8000ad0:	fbb2 f3f3 	udiv	r3, r2, r3
 8000ad4:	6808      	ldr	r0, [r1, #0]
 8000ad6:	fbb0 f0f3 	udiv	r0, r0, r3
 8000ada:	f000 f893 	bl	8000c04 <HAL_SYSTICK_Config>
 8000ade:	4604      	mov	r4, r0
 8000ae0:	2800      	cmp	r0, #0
 8000ae2:	d1ef      	bne.n	8000ac4 <HAL_InitTick+0x8>
      if (TickPriority < (1UL << __NVIC_PRIO_BITS))
 8000ae4:	2d0f      	cmp	r5, #15
 8000ae6:	d8ed      	bhi.n	8000ac4 <HAL_InitTick+0x8>
        HAL_NVIC_SetPriority(SysTick_IRQn, TickPriority, 0U);
 8000ae8:	4602      	mov	r2, r0
 8000aea:	4629      	mov	r1, r5
 8000aec:	f04f 30ff 	mov.w	r0, #4294967295	@ 0xffffffff
 8000af0:	f000 f83e 	bl	8000b70 <HAL_NVIC_SetPriority>
        uwTickPrio = TickPriority;
 8000af4:	4b03      	ldr	r3, [pc, #12]	@ (8000b04 <HAL_InitTick+0x48>)
 8000af6:	4620      	mov	r0, r4
 8000af8:	601d      	str	r5, [r3, #0]
}
 8000afa:	bd38      	pop	{r3, r4, r5, pc}
 8000afc:	20000008 	.word	0x20000008
 8000b00:	20000004 	.word	0x20000004
 8000b04:	2000000c 	.word	0x2000000c

08000b08 <HAL_Init>:
{
 8000b08:	b510      	push	{r4, lr}
  HAL_NVIC_SetPriorityGrouping(NVIC_PRIORITYGROUP_4);
 8000b0a:	2003      	movs	r0, #3
 8000b0c:	f000 f81e 	bl	8000b4c <HAL_NVIC_SetPriorityGrouping>
  if (HAL_InitTick(TICK_INT_PRIORITY) != HAL_OK)
 8000b10:	2000      	movs	r0, #0
 8000b12:	f7ff ffd3 	bl	8000abc <HAL_InitTick>
 8000b16:	b110      	cbz	r0, 8000b1e <HAL_Init+0x16>
    status = HAL_ERROR;
 8000b18:	2401      	movs	r4, #1
}
 8000b1a:	4620      	mov	r0, r4
 8000b1c:	bd10      	pop	{r4, pc}
 8000b1e:	4604      	mov	r4, r0
    HAL_MspInit();
 8000b20:	f7ff fe1c 	bl	800075c <HAL_MspInit>
}
 8000b24:	4620      	mov	r0, r4
 8000b26:	bd10      	pop	{r4, pc}

08000b28 <HAL_IncTick>:
  *      implementations in user file.
  * @retval None
  */
__weak void HAL_IncTick(void)
{
  uwTick += uwTickFreq;
 8000b28:	4a03      	ldr	r2, [pc, #12]	@ (8000b38 <HAL_IncTick+0x10>)
 8000b2a:	4904      	ldr	r1, [pc, #16]	@ (8000b3c <HAL_IncTick+0x14>)
 8000b2c:	6813      	ldr	r3, [r2, #0]
 8000b2e:	6809      	ldr	r1, [r1, #0]
 8000b30:	440b      	add	r3, r1
 8000b32:	6013      	str	r3, [r2, #0]
}
 8000b34:	4770      	bx	lr
 8000b36:	bf00      	nop
 8000b38:	20000010 	.word	0x20000010
 8000b3c:	20000008 	.word	0x20000008

08000b40 <HAL_GetTick>:
  *       implementations in user file.
  * @retval tick value
  */
__weak uint32_t HAL_GetTick(void)
{
  return uwTick;
 8000b40:	4b01      	ldr	r3, [pc, #4]	@ (8000b48 <HAL_GetTick+0x8>)
 8000b42:	6818      	ldr	r0, [r3, #0]
}
 8000b44:	4770      	bx	lr
 8000b46:	bf00      	nop
 8000b48:	20000010 	.word	0x20000010

08000b4c <HAL_NVIC_SetPriorityGrouping>:
__STATIC_INLINE void __NVIC_SetPriorityGrouping(uint32_t PriorityGroup)
{
  uint32_t reg_value;
  uint32_t PriorityGroupTmp = (PriorityGroup & (uint32_t)0x07UL);             /* only values 0..7 are used          */

  reg_value  =  SCB->AIRCR;                                                   /* read old register configuration    */
 8000b4c:	4907      	ldr	r1, [pc, #28]	@ (8000b6c <HAL_NVIC_SetPriorityGrouping+0x20>)
 8000b4e:	68ca      	ldr	r2, [r1, #12]
  reg_value &= ~((uint32_t)(SCB_AIRCR_VECTKEY_Msk | SCB_AIRCR_PRIGROUP_Msk)); /* clear bits to change               */
  reg_value  =  (reg_value                                   |
                ((uint32_t)0x5FAUL << SCB_AIRCR_VECTKEY_Pos) |
                (PriorityGroupTmp << SCB_AIRCR_PRIGROUP_Pos)  );              /* Insert write key and priority group */
 8000b50:	0203      	lsls	r3, r0, #8
  reg_value &= ~((uint32_t)(SCB_AIRCR_VECTKEY_Msk | SCB_AIRCR_PRIGROUP_Msk)); /* clear bits to change               */
 8000b52:	f64f 00ff 	movw	r0, #63743	@ 0xf8ff
                (PriorityGroupTmp << SCB_AIRCR_PRIGROUP_Pos)  );              /* Insert write key and priority group */
 8000b56:	f403 63e0 	and.w	r3, r3, #1792	@ 0x700
  reg_value &= ~((uint32_t)(SCB_AIRCR_VECTKEY_Msk | SCB_AIRCR_PRIGROUP_Msk)); /* clear bits to change               */
 8000b5a:	4002      	ands	r2, r0
                ((uint32_t)0x5FAUL << SCB_AIRCR_VECTKEY_Pos) |
 8000b5c:	4313      	orrs	r3, r2
  reg_value  =  (reg_value                                   |
 8000b5e:	f043 63bf 	orr.w	r3, r3, #100139008	@ 0x5f80000
 8000b62:	f443 3300 	orr.w	r3, r3, #131072	@ 0x20000
  SCB->AIRCR =  reg_value;
 8000b66:	60cb      	str	r3, [r1, #12]
  /* Check the parameters */
  assert_param(IS_NVIC_PRIORITY_GROUP(PriorityGroup));

  /* Set the PRIGROUP[10:8] bits according to the PriorityGroup parameter value */
  NVIC_SetPriorityGrouping(PriorityGroup);
}
 8000b68:	4770      	bx	lr
 8000b6a:	bf00      	nop
 8000b6c:	e000ed00 	.word	0xe000ed00

08000b70 <HAL_NVIC_SetPriority>:
  \details Reads the priority grouping field from the NVIC Interrupt Controller.
  \return                Priority grouping field (SCB->AIRCR [10:8] PRIGROUP field).
 */
__STATIC_INLINE uint32_t __NVIC_GetPriorityGrouping(void)
{
  return ((uint32_t)((SCB->AIRCR & SCB_AIRCR_PRIGROUP_Msk) >> SCB_AIRCR_PRIGROUP_Pos));
 8000b70:	4b1b      	ldr	r3, [pc, #108]	@ (8000be0 <HAL_NVIC_SetPriority+0x70>)
 8000b72:	68db      	ldr	r3, [r3, #12]
 8000b74:	f3c3 2302 	ubfx	r3, r3, #8, #3
  *         This parameter can be a value between 0 and 15
  *         A lower priority value indicates a higher priority.
  * @retval None
  */
void HAL_NVIC_SetPriority(IRQn_Type IRQn, uint32_t PreemptPriority, uint32_t SubPriority)
{
 8000b78:	b500      	push	{lr}
{
  uint32_t PriorityGroupTmp = (PriorityGroup & (uint32_t)0x07UL);   /* only values 0..7 are used          */
  uint32_t PreemptPriorityBits;
  uint32_t SubPriorityBits;

  PreemptPriorityBits = ((7UL - PriorityGroupTmp) > (uint32_t)(__NVIC_PRIO_BITS)) ? (uint32_t)(__NVIC_PRIO_BITS) : (uint32_t)(7UL - PriorityGroupTmp);
 8000b7a:	f1c3 0e07 	rsb	lr, r3, #7
 8000b7e:	f1be 0f04 	cmp.w	lr, #4
  SubPriorityBits     = ((PriorityGroupTmp + (uint32_t)(__NVIC_PRIO_BITS)) < (uint32_t)7UL) ? (uint32_t)0UL : (uint32_t)((PriorityGroupTmp - 7UL) + (uint32_t)(__NVIC_PRIO_BITS));
 8000b82:	f103 0c04 	add.w	ip, r3, #4
  PreemptPriorityBits = ((7UL - PriorityGroupTmp) > (uint32_t)(__NVIC_PRIO_BITS)) ? (uint32_t)(__NVIC_PRIO_BITS) : (uint32_t)(7UL - PriorityGroupTmp);
 8000b86:	bf28      	it	cs
 8000b88:	f04f 0e04 	movcs.w	lr, #4
  SubPriorityBits     = ((PriorityGroupTmp + (uint32_t)(__NVIC_PRIO_BITS)) < (uint32_t)7UL) ? (uint32_t)0UL : (uint32_t)((PriorityGroupTmp - 7UL) + (uint32_t)(__NVIC_PRIO_BITS));
 8000b8c:	f1bc 0f06 	cmp.w	ip, #6
 8000b90:	d91c      	bls.n	8000bcc <HAL_NVIC_SetPriority+0x5c>
 8000b92:	f1a3 0c03 	sub.w	ip, r3, #3

  return (
           ((PreemptPriority & (uint32_t)((1UL << (PreemptPriorityBits)) - 1UL)) << SubPriorityBits) |
           ((SubPriority     & (uint32_t)((1UL << (SubPriorityBits    )) - 1UL)))
 8000b96:	f04f 33ff 	mov.w	r3, #4294967295	@ 0xffffffff
 8000b9a:	fa03 f30c 	lsl.w	r3, r3, ip
 8000b9e:	ea22 0203 	bic.w	r2, r2, r3
           ((PreemptPriority & (uint32_t)((1UL << (PreemptPriorityBits)) - 1UL)) << SubPriorityBits) |
 8000ba2:	f04f 33ff 	mov.w	r3, #4294967295	@ 0xffffffff
 8000ba6:	fa03 f30e 	lsl.w	r3, r3, lr
 8000baa:	ea21 0303 	bic.w	r3, r1, r3
 8000bae:	fa03 f30c 	lsl.w	r3, r3, ip
 8000bb2:	4313      	orrs	r3, r2
    NVIC->IP[((uint32_t)IRQn)]               = (uint8_t)((priority << (8U - __NVIC_PRIO_BITS)) & (uint32_t)0xFFUL);
 8000bb4:	011b      	lsls	r3, r3, #4
  if ((int32_t)(IRQn) >= 0)
 8000bb6:	2800      	cmp	r0, #0
    NVIC->IP[((uint32_t)IRQn)]               = (uint8_t)((priority << (8U - __NVIC_PRIO_BITS)) & (uint32_t)0xFFUL);
 8000bb8:	b2db      	uxtb	r3, r3
  if ((int32_t)(IRQn) >= 0)
 8000bba:	db0a      	blt.n	8000bd2 <HAL_NVIC_SetPriority+0x62>
    NVIC->IP[((uint32_t)IRQn)]               = (uint8_t)((priority << (8U - __NVIC_PRIO_BITS)) & (uint32_t)0xFFUL);
 8000bbc:	f100 4060 	add.w	r0, r0, #3758096384	@ 0xe0000000
 8000bc0:	f500 4061 	add.w	r0, r0, #57600	@ 0xe100
 8000bc4:	f880 3300 	strb.w	r3, [r0, #768]	@ 0x300
  assert_param(IS_NVIC_PREEMPTION_PRIORITY(PreemptPriority));

  prioritygroup = NVIC_GetPriorityGrouping();

  NVIC_SetPriority(IRQn, NVIC_EncodePriority(prioritygroup, PreemptPriority, SubPriority));
}
 8000bc8:	f85d fb04 	ldr.w	pc, [sp], #4
 8000bcc:	2200      	movs	r2, #0
  SubPriorityBits     = ((PriorityGroupTmp + (uint32_t)(__NVIC_PRIO_BITS)) < (uint32_t)7UL) ? (uint32_t)0UL : (uint32_t)((PriorityGroupTmp - 7UL) + (uint32_t)(__NVIC_PRIO_BITS));
 8000bce:	4694      	mov	ip, r2
 8000bd0:	e7e7      	b.n	8000ba2 <HAL_NVIC_SetPriority+0x32>
    SCB->SHP[(((uint32_t)IRQn) & 0xFUL)-4UL] = (uint8_t)((priority << (8U - __NVIC_PRIO_BITS)) & (uint32_t)0xFFUL);
 8000bd2:	4a04      	ldr	r2, [pc, #16]	@ (8000be4 <HAL_NVIC_SetPriority+0x74>)
 8000bd4:	f000 000f 	and.w	r0, r0, #15
 8000bd8:	4402      	add	r2, r0
 8000bda:	7613      	strb	r3, [r2, #24]
 8000bdc:	f85d fb04 	ldr.w	pc, [sp], #4
 8000be0:	e000ed00 	.word	0xe000ed00
 8000be4:	e000ecfc 	.word	0xe000ecfc

08000be8 <HAL_NVIC_EnableIRQ>:
  if ((int32_t)(IRQn) >= 0)
 8000be8:	2800      	cmp	r0, #0
 8000bea:	db07      	blt.n	8000bfc <HAL_NVIC_EnableIRQ+0x14>
    NVIC->ISER[(((uint32_t)IRQn) >> 5UL)] = (uint32_t)(1UL << (((uint32_t)IRQn) & 0x1FUL));
 8000bec:	4a04      	ldr	r2, [pc, #16]	@ (8000c00 <HAL_NVIC_EnableIRQ+0x18>)
 8000bee:	0941      	lsrs	r1, r0, #5
 8000bf0:	2301      	movs	r3, #1
 8000bf2:	f000 001f 	and.w	r0, r0, #31
 8000bf6:	4083      	lsls	r3, r0
 8000bf8:	f842 3021 	str.w	r3, [r2, r1, lsl #2]
  /* Check the parameters */
  assert_param(IS_NVIC_DEVICE_IRQ(IRQn));
  
  /* Enable interrupt */
  NVIC_EnableIRQ(IRQn);
}
 8000bfc:	4770      	bx	lr
 8000bfe:	bf00      	nop
 8000c00:	e000e100 	.word	0xe000e100

08000c04 <HAL_SYSTICK_Config>:
           function <b>SysTick_Config</b> is not included. In this case, the file <b><i>device</i>.h</b>
           must contain a vendor-specific implementation of this function.
 */
__STATIC_INLINE uint32_t SysTick_Config(uint32_t ticks)
{
  if ((ticks - 1UL) > SysTick_LOAD_RELOAD_Msk)
 8000c04:	3801      	subs	r0, #1
 8000c06:	f1b0 7f80 	cmp.w	r0, #16777216	@ 0x1000000
 8000c0a:	d301      	bcc.n	8000c10 <HAL_SYSTICK_Config+0xc>
  {
    return (1UL);                                                   /* Reload value impossible */
 8000c0c:	2001      	movs	r0, #1
  *                  - 1  Function failed.
  */
uint32_t HAL_SYSTICK_Config(uint32_t TicksNumb)
{
   return SysTick_Config(TicksNumb);
}
 8000c0e:	4770      	bx	lr
{
 8000c10:	b410      	push	{r4}
  }

  SysTick->LOAD  = (uint32_t)(ticks - 1UL);                         /* set reload register */
 8000c12:	f04f 23e0 	mov.w	r3, #3758153728	@ 0xe000e000
    SCB->SHP[(((uint32_t)IRQn) & 0xFUL)-4UL] = (uint8_t)((priority << (8U - __NVIC_PRIO_BITS)) & (uint32_t)0xFFUL);
 8000c16:	4c07      	ldr	r4, [pc, #28]	@ (8000c34 <HAL_SYSTICK_Config+0x30>)
  SysTick->LOAD  = (uint32_t)(ticks - 1UL);                         /* set reload register */
 8000c18:	6158      	str	r0, [r3, #20]
    SCB->SHP[(((uint32_t)IRQn) & 0xFUL)-4UL] = (uint8_t)((priority << (8U - __NVIC_PRIO_BITS)) & (uint32_t)0xFFUL);
 8000c1a:	f04f 0cf0 	mov.w	ip, #240	@ 0xf0
 8000c1e:	f884 c023 	strb.w	ip, [r4, #35]	@ 0x23
  NVIC_SetPriority (SysTick_IRQn, (1UL << __NVIC_PRIO_BITS) - 1UL); /* set Priority for Systick Interrupt */
  SysTick->VAL   = 0UL;                                             /* Load the SysTick Counter Value */
 8000c22:	2200      	movs	r2, #0
  SysTick->CTRL  = SysTick_CTRL_CLKSOURCE_Msk |
 8000c24:	2107      	movs	r1, #7
                   SysTick_CTRL_TICKINT_Msk   |
                   SysTick_CTRL_ENABLE_Msk;                         /* Enable SysTick IRQ and SysTick Timer */
  return (0UL);                                                     /* Function successful */
 8000c26:	4610      	mov	r0, r2
  SysTick->VAL   = 0UL;                                             /* Load the SysTick Counter Value */
 8000c28:	619a      	str	r2, [r3, #24]
}
 8000c2a:	f85d 4b04 	ldr.w	r4, [sp], #4
  SysTick->CTRL  = SysTick_CTRL_CLKSOURCE_Msk |
 8000c2e:	6119      	str	r1, [r3, #16]
 8000c30:	4770      	bx	lr
 8000c32:	bf00      	nop
 8000c34:	e000ed00 	.word	0xe000ed00

08000c38 <HAL_DMA_Abort>:
  */
HAL_StatusTypeDef HAL_DMA_Abort(DMA_HandleTypeDef *hdma)
{
  HAL_StatusTypeDef status = HAL_OK;

  if(hdma->State != HAL_DMA_STATE_BUSY)
 8000c38:	f890 2025 	ldrb.w	r2, [r0, #37]	@ 0x25
 8000c3c:	2a02      	cmp	r2, #2
{
 8000c3e:	4603      	mov	r3, r0
  if(hdma->State != HAL_DMA_STATE_BUSY)
 8000c40:	d009      	beq.n	8000c56 <HAL_DMA_Abort+0x1e>
  {
    /* no transfer ongoing */
    hdma->ErrorCode = HAL_DMA_ERROR_NO_XFER;
 8000c42:	2204      	movs	r2, #4
 8000c44:	63c2      	str	r2, [r0, #60]	@ 0x3c
       /* Clear the DMAMUX request generator overrun flag */
       hdma->DMAmuxRequestGenStatus->RGCFR = hdma->DMAmuxRequestGenStatusMask;
     }
  }  
  /* Change the DMA state */
  hdma->State = HAL_DMA_STATE_READY;
 8000c46:	2101      	movs	r1, #1

  /* Process Unlocked */
  __HAL_UNLOCK(hdma);
 8000c48:	2200      	movs	r2, #0
    status = HAL_ERROR;
 8000c4a:	2001      	movs	r0, #1
  hdma->State = HAL_DMA_STATE_READY;
 8000c4c:	f883 1025 	strb.w	r1, [r3, #37]	@ 0x25
  __HAL_UNLOCK(hdma);
 8000c50:	f883 2024 	strb.w	r2, [r3, #36]	@ 0x24

  return status;
}
 8000c54:	4770      	bx	lr
     __HAL_DMA_DISABLE_IT(hdma, (DMA_IT_TC | DMA_IT_HT | DMA_IT_TE));
 8000c56:	6802      	ldr	r2, [r0, #0]
     hdma->DmaBaseAddress->IFCR = (DMA_ISR_GIF1 << (hdma->ChannelIndex & 0x1FU));
 8000c58:	6c59      	ldr	r1, [r3, #68]	@ 0x44
{
 8000c5a:	b430      	push	{r4, r5}
     hdma->DMAmuxChannel->CCR &= ~DMAMUX_CxCR_SOIE;
 8000c5c:	6c84      	ldr	r4, [r0, #72]	@ 0x48
     __HAL_DMA_DISABLE_IT(hdma, (DMA_IT_TC | DMA_IT_HT | DMA_IT_TE));
 8000c5e:	6810      	ldr	r0, [r2, #0]
     hdma->DmaBaseAddress->IFCR = (DMA_ISR_GIF1 << (hdma->ChannelIndex & 0x1FU));
 8000c60:	6c1d      	ldr	r5, [r3, #64]	@ 0x40
     __HAL_DMA_DISABLE_IT(hdma, (DMA_IT_TC | DMA_IT_HT | DMA_IT_TE));
 8000c62:	f020 000e 	bic.w	r0, r0, #14
 8000c66:	6010      	str	r0, [r2, #0]
     hdma->DMAmuxChannel->CCR &= ~DMAMUX_CxCR_SOIE;
 8000c68:	6820      	ldr	r0, [r4, #0]
 8000c6a:	f420 7080 	bic.w	r0, r0, #256	@ 0x100
 8000c6e:	6020      	str	r0, [r4, #0]
     __HAL_DMA_DISABLE(hdma);
 8000c70:	6810      	ldr	r0, [r2, #0]
 8000c72:	f020 0001 	bic.w	r0, r0, #1
 8000c76:	6010      	str	r0, [r2, #0]
     hdma->DmaBaseAddress->IFCR = (DMA_ISR_GIF1 << (hdma->ChannelIndex & 0x1FU));
 8000c78:	f001 011f 	and.w	r1, r1, #31
 8000c7c:	2201      	movs	r2, #1
 8000c7e:	408a      	lsls	r2, r1
     hdma->DMAmuxChannelStatus->CFR = hdma->DMAmuxChannelStatusMask;
 8000c80:	e9d3 4114 	ldrd	r4, r1, [r3, #80]	@ 0x50
 8000c84:	6cd8      	ldr	r0, [r3, #76]	@ 0x4c
     hdma->DmaBaseAddress->IFCR = (DMA_ISR_GIF1 << (hdma->ChannelIndex & 0x1FU));
 8000c86:	606a      	str	r2, [r5, #4]
     hdma->DMAmuxChannelStatus->CFR = hdma->DMAmuxChannelStatusMask;
 8000c88:	6044      	str	r4, [r0, #4]
     if (hdma->DMAmuxRequestGen != 0U)
 8000c8a:	b131      	cbz	r1, 8000c9a <HAL_DMA_Abort+0x62>
       hdma->DMAmuxRequestGen->RGCR &= ~DMAMUX_RGxCR_OIE;
 8000c8c:	680a      	ldr	r2, [r1, #0]
       hdma->DMAmuxRequestGenStatus->RGCFR = hdma->DMAmuxRequestGenStatusMask;
 8000c8e:	e9d3 0416 	ldrd	r0, r4, [r3, #88]	@ 0x58
       hdma->DMAmuxRequestGen->RGCR &= ~DMAMUX_RGxCR_OIE;
 8000c92:	f422 7280 	bic.w	r2, r2, #256	@ 0x100
 8000c96:	600a      	str	r2, [r1, #0]
       hdma->DMAmuxRequestGenStatus->RGCFR = hdma->DMAmuxRequestGenStatusMask;
 8000c98:	6044      	str	r4, [r0, #4]
  hdma->State = HAL_DMA_STATE_READY;
 8000c9a:	2101      	movs	r1, #1
  __HAL_UNLOCK(hdma);
 8000c9c:	2200      	movs	r2, #0
  hdma->State = HAL_DMA_STATE_READY;
 8000c9e:	f883 1025 	strb.w	r1, [r3, #37]	@ 0x25
  __HAL_UNLOCK(hdma);
 8000ca2:	f883 2024 	strb.w	r2, [r3, #36]	@ 0x24
  HAL_StatusTypeDef status = HAL_OK;
 8000ca6:	2000      	movs	r0, #0
}
 8000ca8:	bc30      	pop	{r4, r5}
 8000caa:	4770      	bx	lr

08000cac <HAL_DMA_Abort_IT>:
  * @param  hdma pointer to a DMA_HandleTypeDef structure that contains
  *              the configuration information for the specified DMA Channel.
  * @retval HAL status
  */
HAL_StatusTypeDef HAL_DMA_Abort_IT(DMA_HandleTypeDef *hdma)
{
 8000cac:	b538      	push	{r3, r4, r5, lr}
  HAL_StatusTypeDef status = HAL_OK;

  if (HAL_DMA_STATE_BUSY != hdma->State)
 8000cae:	f890 3025 	ldrb.w	r3, [r0, #37]	@ 0x25
 8000cb2:	2b02      	cmp	r3, #2
 8000cb4:	d009      	beq.n	8000cca <HAL_DMA_Abort_IT+0x1e>
  {
    /* no transfer ongoing */
    hdma->ErrorCode = HAL_DMA_ERROR_NO_XFER;

    /* Change the DMA state */
    hdma->State = HAL_DMA_STATE_READY;
 8000cb6:	2301      	movs	r3, #1
    hdma->ErrorCode = HAL_DMA_ERROR_NO_XFER;
 8000cb8:	2104      	movs	r1, #4

    /* Process Unlocked */
    __HAL_UNLOCK(hdma);
 8000cba:	2200      	movs	r2, #0
    hdma->ErrorCode = HAL_DMA_ERROR_NO_XFER;
 8000cbc:	63c1      	str	r1, [r0, #60]	@ 0x3c
    __HAL_UNLOCK(hdma);
 8000cbe:	f880 2024 	strb.w	r2, [r0, #36]	@ 0x24
    hdma->State = HAL_DMA_STATE_READY;
 8000cc2:	f880 3025 	strb.w	r3, [r0, #37]	@ 0x25

    status = HAL_ERROR;
 8000cc6:	4618      	mov	r0, r3
    {
      hdma->XferAbortCallback(hdma);
    }
  }
  return status;
}
 8000cc8:	bd38      	pop	{r3, r4, r5, pc}
    __HAL_DMA_DISABLE_IT(hdma, (DMA_IT_TC | DMA_IT_HT | DMA_IT_TE));
 8000cca:	6803      	ldr	r3, [r0, #0]
    hdma->DMAmuxChannel->CCR &= ~DMAMUX_CxCR_SOIE;
 8000ccc:	6c84      	ldr	r4, [r0, #72]	@ 0x48
    __HAL_DMA_DISABLE_IT(hdma, (DMA_IT_TC | DMA_IT_HT | DMA_IT_TE));
 8000cce:	6819      	ldr	r1, [r3, #0]
    hdma->DmaBaseAddress->IFCR = (DMA_ISR_GIF1 << (hdma->ChannelIndex & 0x1FU));
 8000cd0:	6c42      	ldr	r2, [r0, #68]	@ 0x44
 8000cd2:	6c05      	ldr	r5, [r0, #64]	@ 0x40
    __HAL_DMA_DISABLE_IT(hdma, (DMA_IT_TC | DMA_IT_HT | DMA_IT_TE));
 8000cd4:	f021 010e 	bic.w	r1, r1, #14
 8000cd8:	6019      	str	r1, [r3, #0]
    __HAL_DMA_DISABLE(hdma);
 8000cda:	6819      	ldr	r1, [r3, #0]
 8000cdc:	f021 0101 	bic.w	r1, r1, #1
 8000ce0:	6019      	str	r1, [r3, #0]
    hdma->DMAmuxChannel->CCR &= ~DMAMUX_CxCR_SOIE;
 8000ce2:	6823      	ldr	r3, [r4, #0]
    hdma->DMAmuxChannelStatus->CFR = hdma->DMAmuxChannelStatusMask;
 8000ce4:	6cc1      	ldr	r1, [r0, #76]	@ 0x4c
    hdma->DMAmuxChannel->CCR &= ~DMAMUX_CxCR_SOIE;
 8000ce6:	f423 7380 	bic.w	r3, r3, #256	@ 0x100
 8000cea:	6023      	str	r3, [r4, #0]
    hdma->DmaBaseAddress->IFCR = (DMA_ISR_GIF1 << (hdma->ChannelIndex & 0x1FU));
 8000cec:	f002 021f 	and.w	r2, r2, #31
 8000cf0:	2301      	movs	r3, #1
 8000cf2:	4093      	lsls	r3, r2
    hdma->DMAmuxChannelStatus->CFR = hdma->DMAmuxChannelStatusMask;
 8000cf4:	e9d0 4214 	ldrd	r4, r2, [r0, #80]	@ 0x50
    hdma->DmaBaseAddress->IFCR = (DMA_ISR_GIF1 << (hdma->ChannelIndex & 0x1FU));
 8000cf8:	606b      	str	r3, [r5, #4]
    hdma->DMAmuxChannelStatus->CFR = hdma->DMAmuxChannelStatusMask;
 8000cfa:	604c      	str	r4, [r1, #4]
    if (hdma->DMAmuxRequestGen != 0U)
 8000cfc:	b132      	cbz	r2, 8000d0c <HAL_DMA_Abort_IT+0x60>
      hdma->DMAmuxRequestGen->RGCR &= ~DMAMUX_RGxCR_OIE;
 8000cfe:	6813      	ldr	r3, [r2, #0]
      hdma->DMAmuxRequestGenStatus->RGCFR = hdma->DMAmuxRequestGenStatusMask;
 8000d00:	e9d0 1416 	ldrd	r1, r4, [r0, #88]	@ 0x58
      hdma->DMAmuxRequestGen->RGCR &= ~DMAMUX_RGxCR_OIE;
 8000d04:	f423 7380 	bic.w	r3, r3, #256	@ 0x100
 8000d08:	6013      	str	r3, [r2, #0]
      hdma->DMAmuxRequestGenStatus->RGCFR = hdma->DMAmuxRequestGenStatusMask;
 8000d0a:	604c      	str	r4, [r1, #4]
    if (hdma->XferAbortCallback != NULL)
 8000d0c:	6b83      	ldr	r3, [r0, #56]	@ 0x38
    hdma->State = HAL_DMA_STATE_READY;
 8000d0e:	2101      	movs	r1, #1
    __HAL_UNLOCK(hdma);
 8000d10:	2200      	movs	r2, #0
    hdma->State = HAL_DMA_STATE_READY;
 8000d12:	f880 1025 	strb.w	r1, [r0, #37]	@ 0x25
    __HAL_UNLOCK(hdma);
 8000d16:	f880 2024 	strb.w	r2, [r0, #36]	@ 0x24
    if (hdma->XferAbortCallback != NULL)
 8000d1a:	b103      	cbz	r3, 8000d1e <HAL_DMA_Abort_IT+0x72>
      hdma->XferAbortCallback(hdma);
 8000d1c:	4798      	blx	r3
  HAL_StatusTypeDef status = HAL_OK;
 8000d1e:	2000      	movs	r0, #0
}
 8000d20:	bd38      	pop	{r3, r4, r5, pc}
 8000d22:	bf00      	nop

08000d24 <HAL_EXTI_RegisterCallback>:
  * @param  pPendingCbfn function pointer to be stored as callback.
  * @retval HAL Status.
  */
HAL_StatusTypeDef HAL_EXTI_RegisterCallback(EXTI_HandleTypeDef *hexti, EXTI_CallbackIDTypeDef CallbackID, void (*pPendingCbfn)(void))
{
  HAL_StatusTypeDef status = HAL_OK;
 8000d24:	2900      	cmp	r1, #0
 8000d26:	bf16      	itet	ne
 8000d28:	2301      	movne	r3, #1
 8000d2a:	2300      	moveq	r3, #0
 8000d2c:	2200      	movne	r2, #0
 8000d2e:	6042      	str	r2, [r0, #4]
      status = HAL_ERROR;
      break;
  }

  return status;
}
 8000d30:	4618      	mov	r0, r3
 8000d32:	4770      	bx	lr

08000d34 <HAL_EXTI_GetHandle>:
{
  /* Check the parameters */
  assert_param(IS_EXTI_LINE(ExtiLine));

  /* Check null pointer */
  if (hexti == NULL)
 8000d34:	b110      	cbz	r0, 8000d3c <HAL_EXTI_GetHandle+0x8>
    return HAL_ERROR;
  }
  else
  {
    /* Store line number as handle private field */
    hexti->Line = ExtiLine;
 8000d36:	6001      	str	r1, [r0, #0]

    return HAL_OK;
 8000d38:	2000      	movs	r0, #0
 8000d3a:	4770      	bx	lr
    return HAL_ERROR;
 8000d3c:	2001      	movs	r0, #1
  }
}
 8000d3e:	4770      	bx	lr

08000d40 <HAL_EXTI_IRQHandler>:
  uint32_t regval;
  uint32_t maskline;
  uint32_t offset;

  /* Compute line register offset */
  offset = ((hexti->Line & EXTI_REG_MASK) >> EXTI_REG_SHIFT);
 8000d40:	6803      	ldr	r3, [r0, #0]
 8000d42:	f3c3 4200 	ubfx	r2, r3, #16, #1
{
 8000d46:	b410      	push	{r4}
  /* compute line mask */
  maskline = (1uL << (hexti->Line & EXTI_PIN_MASK));

  /* Get pending bit  */
  regaddr = (&EXTI->PR1 + (EXTI_CONFIG_OFFSET * offset));
 8000d48:	0152      	lsls	r2, r2, #5
 8000d4a:	4c09      	ldr	r4, [pc, #36]	@ (8000d70 <HAL_EXTI_IRQHandler+0x30>)
  maskline = (1uL << (hexti->Line & EXTI_PIN_MASK));
 8000d4c:	2101      	movs	r1, #1
 8000d4e:	f003 031f 	and.w	r3, r3, #31
 8000d52:	fa01 f303 	lsl.w	r3, r1, r3
  regval = (*regaddr & maskline);
 8000d56:	5911      	ldr	r1, [r2, r4]

  if (regval != 0x00u)
 8000d58:	4219      	tst	r1, r3
 8000d5a:	d005      	beq.n	8000d68 <HAL_EXTI_IRQHandler+0x28>
  {
    /* Clear pending bit */
    *regaddr = maskline;

    /* Call pending callback */
    if (hexti->PendingCallback != NULL)
 8000d5c:	6841      	ldr	r1, [r0, #4]
    *regaddr = maskline;
 8000d5e:	5113      	str	r3, [r2, r4]
    if (hexti->PendingCallback != NULL)
 8000d60:	b111      	cbz	r1, 8000d68 <HAL_EXTI_IRQHandler+0x28>
    {
      hexti->PendingCallback();
    }
  }
}
 8000d62:	f85d 4b04 	ldr.w	r4, [sp], #4
      hexti->PendingCallback();
 8000d66:	4708      	bx	r1
}
 8000d68:	f85d 4b04 	ldr.w	r4, [sp], #4
 8000d6c:	4770      	bx	lr
 8000d6e:	bf00      	nop
 8000d70:	40010414 	.word	0x40010414

08000d74 <HAL_GPIO_Init>:
  * @param  GPIO_Init pointer to a GPIO_InitTypeDef structure that contains
  *         the configuration information for the specified GPIO peripheral.
  * @retval None
  */
void HAL_GPIO_Init(GPIO_TypeDef  *GPIOx, GPIO_InitTypeDef *GPIO_Init)
{
 8000d74:	e92d 4ff0 	stmdb	sp!, {r4, r5, r6, r7, r8, r9, sl, fp, lr}
  assert_param(IS_GPIO_ALL_INSTANCE(GPIOx));
  assert_param(IS_GPIO_PIN(GPIO_Init->Pin));
  assert_param(IS_GPIO_MODE(GPIO_Init->Mode));

  /* Configure the port pins */
  while (((GPIO_Init->Pin) >> position) != 0U)
 8000d78:	680c      	ldr	r4, [r1, #0]
{
 8000d7a:	b085      	sub	sp, #20
  while (((GPIO_Init->Pin) >> position) != 0U)
 8000d7c:	2c00      	cmp	r4, #0
 8000d7e:	f000 8089 	beq.w	8000e94 <HAL_GPIO_Init+0x120>
  uint32_t position = 0x00U;
 8000d82:	2300      	movs	r3, #0
  {
    /* Get current io position */
    iocurrent = (GPIO_Init->Pin) & (1UL << position);
 8000d84:	f04f 0b01 	mov.w	fp, #1
 8000d88:	fa0b fe03 	lsl.w	lr, fp, r3

    if (iocurrent != 0x00u)
 8000d8c:	ea1e 0a04 	ands.w	sl, lr, r4
 8000d90:	d07b      	beq.n	8000e8a <HAL_GPIO_Init+0x116>
    {
      /*--------------------- GPIO Mode Configuration ------------------------*/
      /* In case of Output or Alternate function mode selection */
      if(((GPIO_Init->Mode & GPIO_MODE) == MODE_OUTPUT) ||
 8000d92:	684d      	ldr	r5, [r1, #4]
 8000d94:	f005 0203 	and.w	r2, r5, #3
 8000d98:	ea4f 0c43 	mov.w	ip, r3, lsl #1
      {
        /* Check the Speed parameter */
        assert_param(IS_GPIO_SPEED(GPIO_Init->Speed));
        /* Configure the IO Speed */
        temp = GPIOx->OSPEEDR;
        temp &= ~(GPIO_OSPEEDR_OSPEED0 << (position * 2U));
 8000d9c:	2603      	movs	r6, #3
      if(((GPIO_Init->Mode & GPIO_MODE) == MODE_OUTPUT) ||
 8000d9e:	f102 38ff 	add.w	r8, r2, #4294967295	@ 0xffffffff
        temp &= ~(GPIO_OSPEEDR_OSPEED0 << (position * 2U));
 8000da2:	fa06 f70c 	lsl.w	r7, r6, ip
      if(((GPIO_Init->Mode & GPIO_MODE) == MODE_OUTPUT) ||
 8000da6:	f1b8 0f01 	cmp.w	r8, #1
        temp &= ~(GPIO_OSPEEDR_OSPEED0 << (position * 2U));
 8000daa:	ea6f 0707 	mvn.w	r7, r7
      if(((GPIO_Init->Mode & GPIO_MODE) == MODE_OUTPUT) ||
 8000dae:	d974      	bls.n	8000e9a <HAL_GPIO_Init+0x126>
        temp &= ~(GPIO_OTYPER_OT0 << position) ;
        temp |= (((GPIO_Init->Mode & OUTPUT_TYPE) >> OUTPUT_TYPE_Pos) << position);
        GPIOx->OTYPER = temp;
      }

      if ((GPIO_Init->Mode & GPIO_MODE) != MODE_ANALOG)
 8000db0:	2a03      	cmp	r2, #3
 8000db2:	f040 80b0 	bne.w	8000f16 <HAL_GPIO_Init+0x1a2>
      }

      /* Configure IO Direction mode (Input, Output, Alternate or Analog) */
      temp = GPIOx->MODER;
      temp &= ~(GPIO_MODER_MODE0 << (position * 2U));
      temp |= ((GPIO_Init->Mode & GPIO_MODE) << (position * 2U));
 8000db6:	fa02 f20c 	lsl.w	r2, r2, ip
      temp = GPIOx->MODER;
 8000dba:	f8d0 c000 	ldr.w	ip, [r0]
      temp &= ~(GPIO_MODER_MODE0 << (position * 2U));
 8000dbe:	ea0c 0707 	and.w	r7, ip, r7
      temp |= ((GPIO_Init->Mode & GPIO_MODE) << (position * 2U));
 8000dc2:	433a      	orrs	r2, r7
      GPIOx->MODER = temp;

      /*--------------------- EXTI Mode Configuration ------------------------*/
      /* Configure the External Interrupt or event for the current IO */
      if ((GPIO_Init->Mode & EXTI_MODE) != 0x00u)
 8000dc4:	f415 3f40 	tst.w	r5, #196608	@ 0x30000
      GPIOx->MODER = temp;
 8000dc8:	6002      	str	r2, [r0, #0]
      if ((GPIO_Init->Mode & EXTI_MODE) != 0x00u)
 8000dca:	d05e      	beq.n	8000e8a <HAL_GPIO_Init+0x116>
      {
        /* Enable SYSCFG Clock */
        __HAL_RCC_SYSCFG_CLK_ENABLE();
 8000dcc:	4f66      	ldr	r7, [pc, #408]	@ (8000f68 <HAL_GPIO_Init+0x1f4>)
 8000dce:	6e3a      	ldr	r2, [r7, #96]	@ 0x60
 8000dd0:	f042 0201 	orr.w	r2, r2, #1
 8000dd4:	663a      	str	r2, [r7, #96]	@ 0x60
 8000dd6:	6e3a      	ldr	r2, [r7, #96]	@ 0x60
 8000dd8:	f002 0201 	and.w	r2, r2, #1
 8000ddc:	9203      	str	r2, [sp, #12]
 8000dde:	9a03      	ldr	r2, [sp, #12]

        temp = SYSCFG->EXTICR[position >> 2U];
 8000de0:	f023 0203 	bic.w	r2, r3, #3
 8000de4:	f102 4280 	add.w	r2, r2, #1073741824	@ 0x40000000
 8000de8:	f502 3280 	add.w	r2, r2, #65536	@ 0x10000
        temp &= ~(0x0FUL << (4U * (position & 0x03U)));
 8000dec:	f003 0c03 	and.w	ip, r3, #3
        temp = SYSCFG->EXTICR[position >> 2U];
 8000df0:	6897      	ldr	r7, [r2, #8]
        temp &= ~(0x0FUL << (4U * (position & 0x03U)));
 8000df2:	ea4f 0c8c 	mov.w	ip, ip, lsl #2
 8000df6:	260f      	movs	r6, #15
 8000df8:	fa06 fe0c 	lsl.w	lr, r6, ip
        temp |= (GPIO_GET_INDEX(GPIOx) << (4U * (position & 0x03U)));
 8000dfc:	f1b0 4f90 	cmp.w	r0, #1207959552	@ 0x48000000
        temp &= ~(0x0FUL << (4U * (position & 0x03U)));
 8000e00:	ea27 070e 	bic.w	r7, r7, lr
        temp |= (GPIO_GET_INDEX(GPIOx) << (4U * (position & 0x03U)));
 8000e04:	d01d      	beq.n	8000e42 <HAL_GPIO_Init+0xce>
 8000e06:	4e59      	ldr	r6, [pc, #356]	@ (8000f6c <HAL_GPIO_Init+0x1f8>)
 8000e08:	42b0      	cmp	r0, r6
 8000e0a:	f000 8097 	beq.w	8000f3c <HAL_GPIO_Init+0x1c8>
 8000e0e:	4e58      	ldr	r6, [pc, #352]	@ (8000f70 <HAL_GPIO_Init+0x1fc>)
 8000e10:	42b0      	cmp	r0, r6
 8000e12:	f000 809a 	beq.w	8000f4a <HAL_GPIO_Init+0x1d6>
 8000e16:	f8df e160 	ldr.w	lr, [pc, #352]	@ 8000f78 <HAL_GPIO_Init+0x204>
 8000e1a:	4570      	cmp	r0, lr
 8000e1c:	f000 8087 	beq.w	8000f2e <HAL_GPIO_Init+0x1ba>
 8000e20:	f8df e158 	ldr.w	lr, [pc, #344]	@ 8000f7c <HAL_GPIO_Init+0x208>
 8000e24:	4570      	cmp	r0, lr
 8000e26:	f000 8097 	beq.w	8000f58 <HAL_GPIO_Init+0x1e4>
 8000e2a:	f8df e154 	ldr.w	lr, [pc, #340]	@ 8000f80 <HAL_GPIO_Init+0x20c>
 8000e2e:	4570      	cmp	r0, lr
 8000e30:	bf0c      	ite	eq
 8000e32:	f04f 0e05 	moveq.w	lr, #5
 8000e36:	f04f 0e06 	movne.w	lr, #6
 8000e3a:	fa0e fc0c 	lsl.w	ip, lr, ip
 8000e3e:	ea47 070c 	orr.w	r7, r7, ip
        SYSCFG->EXTICR[position >> 2U] = temp;
 8000e42:	6097      	str	r7, [r2, #8]

        /* Clear Rising Falling edge configuration */
        temp = EXTI->RTSR1;
 8000e44:	4a4b      	ldr	r2, [pc, #300]	@ (8000f74 <HAL_GPIO_Init+0x200>)
 8000e46:	6892      	ldr	r2, [r2, #8]
        temp &= ~(iocurrent);
        if ((GPIO_Init->Mode & TRIGGER_RISING) != 0x00U)
 8000e48:	02ee      	lsls	r6, r5, #11
        temp &= ~(iocurrent);
 8000e4a:	ea6f 070a 	mvn.w	r7, sl
        {
          temp |= iocurrent;
        }
        EXTI->RTSR1 = temp;
 8000e4e:	4e49      	ldr	r6, [pc, #292]	@ (8000f74 <HAL_GPIO_Init+0x200>)
        temp &= ~(iocurrent);
 8000e50:	bf54      	ite	pl
 8000e52:	403a      	andpl	r2, r7
          temp |= iocurrent;
 8000e54:	ea4a 0202 	orrmi.w	r2, sl, r2
        EXTI->RTSR1 = temp;
 8000e58:	60b2      	str	r2, [r6, #8]

        temp = EXTI->FTSR1;
 8000e5a:	68f2      	ldr	r2, [r6, #12]
        temp &= ~(iocurrent);
        if ((GPIO_Init->Mode & TRIGGER_FALLING) != 0x00U)
 8000e5c:	02ae      	lsls	r6, r5, #10
        {
          temp |= iocurrent;
        }
        EXTI->FTSR1 = temp;
 8000e5e:	4e45      	ldr	r6, [pc, #276]	@ (8000f74 <HAL_GPIO_Init+0x200>)
        temp &= ~(iocurrent);
 8000e60:	bf54      	ite	pl
 8000e62:	403a      	andpl	r2, r7
          temp |= iocurrent;
 8000e64:	ea4a 0202 	orrmi.w	r2, sl, r2
        EXTI->FTSR1 = temp;
 8000e68:	60f2      	str	r2, [r6, #12]

        temp = EXTI->EMR1;
 8000e6a:	6872      	ldr	r2, [r6, #4]
        temp &= ~(iocurrent);
        if ((GPIO_Init->Mode & EXTI_EVT) != 0x00U)
 8000e6c:	03ae      	lsls	r6, r5, #14
        {
          temp |= iocurrent;
        }
        EXTI->EMR1 = temp;
 8000e6e:	4e41      	ldr	r6, [pc, #260]	@ (8000f74 <HAL_GPIO_Init+0x200>)
        temp &= ~(iocurrent);
 8000e70:	bf54      	ite	pl
 8000e72:	403a      	andpl	r2, r7
          temp |= iocurrent;
 8000e74:	ea4a 0202 	orrmi.w	r2, sl, r2
        EXTI->EMR1 = temp;
 8000e78:	6072      	str	r2, [r6, #4]

        /* Clear EXTI line configuration */
        temp = EXTI->IMR1;
 8000e7a:	6832      	ldr	r2, [r6, #0]
        temp &= ~(iocurrent);
        if ((GPIO_Init->Mode & EXTI_IT) != 0x00U)
 8000e7c:	03ed      	lsls	r5, r5, #15
        {
          temp |= iocurrent;
        }
        EXTI->IMR1 = temp;
 8000e7e:	4d3d      	ldr	r5, [pc, #244]	@ (8000f74 <HAL_GPIO_Init+0x200>)
        temp &= ~(iocurrent);
 8000e80:	bf54      	ite	pl
 8000e82:	403a      	andpl	r2, r7
          temp |= iocurrent;
 8000e84:	ea4a 0202 	orrmi.w	r2, sl, r2
        EXTI->IMR1 = temp;
 8000e88:	602a      	str	r2, [r5, #0]
      }
    }

    position++;
 8000e8a:	3301      	adds	r3, #1
  while (((GPIO_Init->Pin) >> position) != 0U)
 8000e8c:	fa34 f203 	lsrs.w	r2, r4, r3
 8000e90:	f47f af7a 	bne.w	8000d88 <HAL_GPIO_Init+0x14>
  }
}
 8000e94:	b005      	add	sp, #20
 8000e96:	e8bd 8ff0 	ldmia.w	sp!, {r4, r5, r6, r7, r8, r9, sl, fp, pc}
        temp = GPIOx->OSPEEDR;
 8000e9a:	f8d0 9008 	ldr.w	r9, [r0, #8]
        temp |= (GPIO_Init->Speed << (position * 2U));
 8000e9e:	68ce      	ldr	r6, [r1, #12]
        temp &= ~(GPIO_OSPEEDR_OSPEED0 << (position * 2U));
 8000ea0:	ea09 0907 	and.w	r9, r9, r7
        temp |= (GPIO_Init->Speed << (position * 2U));
 8000ea4:	fa06 f80c 	lsl.w	r8, r6, ip
 8000ea8:	ea48 0809 	orr.w	r8, r8, r9
        GPIOx->OSPEEDR = temp;
 8000eac:	f8c0 8008 	str.w	r8, [r0, #8]
        temp = GPIOx->OTYPER;
 8000eb0:	f8d0 8004 	ldr.w	r8, [r0, #4]
        temp |= ((GPIO_Init->Pull) << (position * 2U));
 8000eb4:	688e      	ldr	r6, [r1, #8]
        temp &= ~(GPIO_OTYPER_OT0 << position) ;
 8000eb6:	ea28 080e 	bic.w	r8, r8, lr
        temp |= (((GPIO_Init->Mode & OUTPUT_TYPE) >> OUTPUT_TYPE_Pos) << position);
 8000eba:	f3c5 1e00 	ubfx	lr, r5, #4, #1
 8000ebe:	fa0e fe03 	lsl.w	lr, lr, r3
 8000ec2:	ea4e 0e08 	orr.w	lr, lr, r8
        GPIOx->OTYPER = temp;
 8000ec6:	f8c0 e004 	str.w	lr, [r0, #4]
        temp = GPIOx->PUPDR;
 8000eca:	f8d0 800c 	ldr.w	r8, [r0, #12]
        temp |= ((GPIO_Init->Pull) << (position * 2U));
 8000ece:	fa06 fe0c 	lsl.w	lr, r6, ip
        temp &= ~(GPIO_PUPDR_PUPD0 << (position * 2U));
 8000ed2:	ea08 0807 	and.w	r8, r8, r7
        temp |= ((GPIO_Init->Pull) << (position * 2U));
 8000ed6:	ea4e 0e08 	orr.w	lr, lr, r8
      if ((GPIO_Init->Mode & GPIO_MODE) == MODE_AF)
 8000eda:	2a02      	cmp	r2, #2
        GPIOx->PUPDR = temp;
 8000edc:	f8c0 e00c 	str.w	lr, [r0, #12]
      if ((GPIO_Init->Mode & GPIO_MODE) == MODE_AF)
 8000ee0:	f47f af69 	bne.w	8000db6 <HAL_GPIO_Init+0x42>
        temp |= ((GPIO_Init->Alternate) << ((position & 0x07U) * 4U));
 8000ee4:	690e      	ldr	r6, [r1, #16]
        temp = GPIOx->AFR[position >> 3U];
 8000ee6:	ea4f 08d3 	mov.w	r8, r3, lsr #3
        temp &= ~(0xFU << ((position & 0x07U) * 4U));
 8000eea:	f003 0e07 	and.w	lr, r3, #7
 8000eee:	eb00 0888 	add.w	r8, r0, r8, lsl #2
 8000ef2:	ea4f 0e8e 	mov.w	lr, lr, lsl #2
        temp |= ((GPIO_Init->Alternate) << ((position & 0x07U) * 4U));
 8000ef6:	fa06 f60e 	lsl.w	r6, r6, lr
        temp = GPIOx->AFR[position >> 3U];
 8000efa:	f8d8 9020 	ldr.w	r9, [r8, #32]
        temp |= ((GPIO_Init->Alternate) << ((position & 0x07U) * 4U));
 8000efe:	9601      	str	r6, [sp, #4]
        temp &= ~(0xFU << ((position & 0x07U) * 4U));
 8000f00:	260f      	movs	r6, #15
 8000f02:	fa06 fe0e 	lsl.w	lr, r6, lr
        temp |= ((GPIO_Init->Alternate) << ((position & 0x07U) * 4U));
 8000f06:	9e01      	ldr	r6, [sp, #4]
        temp &= ~(0xFU << ((position & 0x07U) * 4U));
 8000f08:	ea29 090e 	bic.w	r9, r9, lr
        temp |= ((GPIO_Init->Alternate) << ((position & 0x07U) * 4U));
 8000f0c:	ea46 0e09 	orr.w	lr, r6, r9
        GPIOx->AFR[position >> 3U] = temp;
 8000f10:	f8c8 e020 	str.w	lr, [r8, #32]
 8000f14:	e74f      	b.n	8000db6 <HAL_GPIO_Init+0x42>
        temp = GPIOx->PUPDR;
 8000f16:	f8d0 800c 	ldr.w	r8, [r0, #12]
        temp |= ((GPIO_Init->Pull) << (position * 2U));
 8000f1a:	688e      	ldr	r6, [r1, #8]
        temp &= ~(GPIO_PUPDR_PUPD0 << (position * 2U));
 8000f1c:	ea08 0807 	and.w	r8, r8, r7
        temp |= ((GPIO_Init->Pull) << (position * 2U));
 8000f20:	fa06 fe0c 	lsl.w	lr, r6, ip
 8000f24:	ea4e 0e08 	orr.w	lr, lr, r8
        GPIOx->PUPDR = temp;
 8000f28:	f8c0 e00c 	str.w	lr, [r0, #12]
      if ((GPIO_Init->Mode & GPIO_MODE) == MODE_AF)
 8000f2c:	e743      	b.n	8000db6 <HAL_GPIO_Init+0x42>
        temp |= (GPIO_GET_INDEX(GPIOx) << (4U * (position & 0x03U)));
 8000f2e:	f04f 0e03 	mov.w	lr, #3
 8000f32:	fa0e fc0c 	lsl.w	ip, lr, ip
 8000f36:	ea47 070c 	orr.w	r7, r7, ip
 8000f3a:	e782      	b.n	8000e42 <HAL_GPIO_Init+0xce>
 8000f3c:	f04f 0e01 	mov.w	lr, #1
 8000f40:	fa0e fc0c 	lsl.w	ip, lr, ip
 8000f44:	ea47 070c 	orr.w	r7, r7, ip
 8000f48:	e77b      	b.n	8000e42 <HAL_GPIO_Init+0xce>
 8000f4a:	f04f 0e02 	mov.w	lr, #2
 8000f4e:	fa0e fc0c 	lsl.w	ip, lr, ip
 8000f52:	ea47 070c 	orr.w	r7, r7, ip
 8000f56:	e774      	b.n	8000e42 <HAL_GPIO_Init+0xce>
 8000f58:	f04f 0e04 	mov.w	lr, #4
 8000f5c:	fa0e fc0c 	lsl.w	ip, lr, ip
 8000f60:	ea47 070c 	orr.w	r7, r7, ip
 8000f64:	e76d      	b.n	8000e42 <HAL_GPIO_Init+0xce>
 8000f66:	bf00      	nop
 8000f68:	40021000 	.word	0x40021000
 8000f6c:	48000400 	.word	0x48000400
 8000f70:	48000800 	.word	0x48000800
 8000f74:	40010400 	.word	0x40010400
 8000f78:	48000c00 	.word	0x48000c00
 8000f7c:	48001000 	.word	0x48001000
 8000f80:	48001400 	.word	0x48001400

08000f84 <HAL_GPIO_WritePin>:
{
  /* Check the parameters */
  assert_param(IS_GPIO_PIN(GPIO_Pin));
  assert_param(IS_GPIO_PIN_ACTION(PinState));

  if (PinState != GPIO_PIN_RESET)
 8000f84:	b10a      	cbz	r2, 8000f8a <HAL_GPIO_WritePin+0x6>
  {
    GPIOx->BSRR = (uint32_t)GPIO_Pin;
 8000f86:	6181      	str	r1, [r0, #24]
 8000f88:	4770      	bx	lr
  }
  else
  {
    GPIOx->BRR = (uint32_t)GPIO_Pin;
 8000f8a:	6281      	str	r1, [r0, #40]	@ 0x28
  }
}
 8000f8c:	4770      	bx	lr
 8000f8e:	bf00      	nop

08000f90 <HAL_PWREx_ControlVoltageScaling>:
  assert_param(IS_PWR_VOLTAGE_SCALING_RANGE(VoltageScaling));

  if (VoltageScaling == PWR_REGULATOR_VOLTAGE_SCALE1_BOOST)
  {
    /* If current range is range 2 */
    if (READ_BIT(PWR->CR1, PWR_CR1_VOS) == PWR_REGULATOR_VOLTAGE_SCALE2)
 8000f90:	4a35      	ldr	r2, [pc, #212]	@ (8001068 <HAL_PWREx_ControlVoltageScaling+0xd8>)
 8000f92:	6813      	ldr	r3, [r2, #0]
  if (VoltageScaling == PWR_REGULATOR_VOLTAGE_SCALE1_BOOST)
 8000f94:	b960      	cbnz	r0, 8000fb0 <HAL_PWREx_ControlVoltageScaling+0x20>
    if (READ_BIT(PWR->CR1, PWR_CR1_VOS) == PWR_REGULATOR_VOLTAGE_SCALE2)
 8000f96:	f403 63c0 	and.w	r3, r3, #1536	@ 0x600
 8000f9a:	f5b3 6f80 	cmp.w	r3, #1024	@ 0x400
    {
      /* Make sure Range 1 Boost is enabled */
      CLEAR_BIT(PWR->CR5, PWR_CR5_R1MODE);
 8000f9e:	f8d2 3080 	ldr.w	r3, [r2, #128]	@ 0x80
    if (READ_BIT(PWR->CR1, PWR_CR1_VOS) == PWR_REGULATOR_VOLTAGE_SCALE2)
 8000fa2:	d01b      	beq.n	8000fdc <HAL_PWREx_ControlVoltageScaling+0x4c>
    }
    /* If current range is range 1 normal or boost mode */
    else
    {
      /* Enable Range 1 Boost (no issue if bit already reset) */
      CLEAR_BIT(PWR->CR5, PWR_CR5_R1MODE);
 8000fa4:	f423 7380 	bic.w	r3, r3, #256	@ 0x100
 8000fa8:	f8c2 3080 	str.w	r3, [r2, #128]	@ 0x80
    MODIFY_REG(PWR->CR1, PWR_CR1_VOS, PWR_REGULATOR_VOLTAGE_SCALE2);
    /* No need to wait for VOSF to be cleared for this transition */
    /* PWR_CR5_R1MODE bit setting has no effect in Range 2        */
  }

  return HAL_OK;
 8000fac:	2000      	movs	r0, #0
}
 8000fae:	4770      	bx	lr
  else if (VoltageScaling == PWR_REGULATOR_VOLTAGE_SCALE1)
 8000fb0:	f5b0 7f00 	cmp.w	r0, #512	@ 0x200
 8000fb4:	d006      	beq.n	8000fc4 <HAL_PWREx_ControlVoltageScaling+0x34>
    MODIFY_REG(PWR->CR1, PWR_CR1_VOS, PWR_REGULATOR_VOLTAGE_SCALE2);
 8000fb6:	f423 63c0 	bic.w	r3, r3, #1536	@ 0x600
 8000fba:	f443 6380 	orr.w	r3, r3, #1024	@ 0x400
 8000fbe:	6013      	str	r3, [r2, #0]
  return HAL_OK;
 8000fc0:	2000      	movs	r0, #0
}
 8000fc2:	4770      	bx	lr
    if (READ_BIT(PWR->CR1, PWR_CR1_VOS) == PWR_REGULATOR_VOLTAGE_SCALE2)
 8000fc4:	f403 63c0 	and.w	r3, r3, #1536	@ 0x600
 8000fc8:	f5b3 6f80 	cmp.w	r3, #1024	@ 0x400
      SET_BIT(PWR->CR5, PWR_CR5_R1MODE);
 8000fcc:	f8d2 3080 	ldr.w	r3, [r2, #128]	@ 0x80
    if (READ_BIT(PWR->CR1, PWR_CR1_VOS) == PWR_REGULATOR_VOLTAGE_SCALE2)
 8000fd0:	d029      	beq.n	8001026 <HAL_PWREx_ControlVoltageScaling+0x96>
      SET_BIT(PWR->CR5, PWR_CR5_R1MODE);
 8000fd2:	f443 7380 	orr.w	r3, r3, #256	@ 0x100
 8000fd6:	f8c2 3080 	str.w	r3, [r2, #128]	@ 0x80
 8000fda:	e7f1      	b.n	8000fc0 <HAL_PWREx_ControlVoltageScaling+0x30>
      CLEAR_BIT(PWR->CR5, PWR_CR5_R1MODE);
 8000fdc:	f423 7380 	bic.w	r3, r3, #256	@ 0x100
 8000fe0:	f8c2 3080 	str.w	r3, [r2, #128]	@ 0x80
      MODIFY_REG(PWR->CR1, PWR_CR1_VOS, PWR_REGULATOR_VOLTAGE_SCALE1);
 8000fe4:	6813      	ldr	r3, [r2, #0]
      wait_loop_index = ((PWR_FLAG_SETTING_DELAY_US * SystemCoreClock) / 1000000U) + 1U;
 8000fe6:	4821      	ldr	r0, [pc, #132]	@ (800106c <HAL_PWREx_ControlVoltageScaling+0xdc>)
 8000fe8:	4921      	ldr	r1, [pc, #132]	@ (8001070 <HAL_PWREx_ControlVoltageScaling+0xe0>)
      MODIFY_REG(PWR->CR1, PWR_CR1_VOS, PWR_REGULATOR_VOLTAGE_SCALE1);
 8000fea:	f423 63c0 	bic.w	r3, r3, #1536	@ 0x600
 8000fee:	f443 7300 	orr.w	r3, r3, #512	@ 0x200
 8000ff2:	6013      	str	r3, [r2, #0]
      wait_loop_index = ((PWR_FLAG_SETTING_DELAY_US * SystemCoreClock) / 1000000U) + 1U;
 8000ff4:	6803      	ldr	r3, [r0, #0]
 8000ff6:	2032      	movs	r0, #50	@ 0x32
 8000ff8:	fb00 f303 	mul.w	r3, r0, r3
      while ((HAL_IS_BIT_SET(PWR->SR2, PWR_SR2_VOSF)) && (wait_loop_index != 0U))
 8000ffc:	6950      	ldr	r0, [r2, #20]
      wait_loop_index = ((PWR_FLAG_SETTING_DELAY_US * SystemCoreClock) / 1000000U) + 1U;
 8000ffe:	fba1 1303 	umull	r1, r3, r1, r3
 8001002:	0c9b      	lsrs	r3, r3, #18
      while ((HAL_IS_BIT_SET(PWR->SR2, PWR_SR2_VOSF)) && (wait_loop_index != 0U))
 8001004:	0540      	lsls	r0, r0, #21
      wait_loop_index = ((PWR_FLAG_SETTING_DELAY_US * SystemCoreClock) / 1000000U) + 1U;
 8001006:	f103 0301 	add.w	r3, r3, #1
      while ((HAL_IS_BIT_SET(PWR->SR2, PWR_SR2_VOSF)) && (wait_loop_index != 0U))
 800100a:	d506      	bpl.n	800101a <HAL_PWREx_ControlVoltageScaling+0x8a>
 800100c:	e000      	b.n	8001010 <HAL_PWREx_ControlVoltageScaling+0x80>
 800100e:	b123      	cbz	r3, 800101a <HAL_PWREx_ControlVoltageScaling+0x8a>
 8001010:	6951      	ldr	r1, [r2, #20]
 8001012:	0549      	lsls	r1, r1, #21
        wait_loop_index--;
 8001014:	f103 33ff 	add.w	r3, r3, #4294967295	@ 0xffffffff
      while ((HAL_IS_BIT_SET(PWR->SR2, PWR_SR2_VOSF)) && (wait_loop_index != 0U))
 8001018:	d4f9      	bmi.n	800100e <HAL_PWREx_ControlVoltageScaling+0x7e>
      if (HAL_IS_BIT_SET(PWR->SR2, PWR_SR2_VOSF))
 800101a:	4b13      	ldr	r3, [pc, #76]	@ (8001068 <HAL_PWREx_ControlVoltageScaling+0xd8>)
 800101c:	695b      	ldr	r3, [r3, #20]
 800101e:	055b      	lsls	r3, r3, #21
 8001020:	d5ce      	bpl.n	8000fc0 <HAL_PWREx_ControlVoltageScaling+0x30>
        return HAL_TIMEOUT;
 8001022:	2003      	movs	r0, #3
 8001024:	4770      	bx	lr
      SET_BIT(PWR->CR5, PWR_CR5_R1MODE);
 8001026:	f443 7380 	orr.w	r3, r3, #256	@ 0x100
 800102a:	f8c2 3080 	str.w	r3, [r2, #128]	@ 0x80
      MODIFY_REG(PWR->CR1, PWR_CR1_VOS, PWR_REGULATOR_VOLTAGE_SCALE1);
 800102e:	6813      	ldr	r3, [r2, #0]
      wait_loop_index = ((PWR_FLAG_SETTING_DELAY_US * SystemCoreClock) / 1000000U) + 1U;
 8001030:	480e      	ldr	r0, [pc, #56]	@ (800106c <HAL_PWREx_ControlVoltageScaling+0xdc>)
 8001032:	490f      	ldr	r1, [pc, #60]	@ (8001070 <HAL_PWREx_ControlVoltageScaling+0xe0>)
      MODIFY_REG(PWR->CR1, PWR_CR1_VOS, PWR_REGULATOR_VOLTAGE_SCALE1);
 8001034:	f423 63c0 	bic.w	r3, r3, #1536	@ 0x600
 8001038:	f443 7300 	orr.w	r3, r3, #512	@ 0x200
 800103c:	6013      	str	r3, [r2, #0]
      wait_loop_index = ((PWR_FLAG_SETTING_DELAY_US * SystemCoreClock) / 1000000U) + 1U;
 800103e:	6803      	ldr	r3, [r0, #0]
 8001040:	2032      	movs	r0, #50	@ 0x32
 8001042:	fb00 f303 	mul.w	r3, r0, r3
      while ((HAL_IS_BIT_SET(PWR->SR2, PWR_SR2_VOSF)) && (wait_loop_index != 0U))
 8001046:	6950      	ldr	r0, [r2, #20]
      wait_loop_index = ((PWR_FLAG_SETTING_DELAY_US * SystemCoreClock) / 1000000U) + 1U;
 8001048:	fba1 1303 	umull	r1, r3, r1, r3
 800104c:	0c9b      	lsrs	r3, r3, #18
      while ((HAL_IS_BIT_SET(PWR->SR2, PWR_SR2_VOSF)) && (wait_loop_index != 0U))
 800104e:	0540      	lsls	r0, r0, #21
      wait_loop_index = ((PWR_FLAG_SETTING_DELAY_US * SystemCoreClock) / 1000000U) + 1U;
 8001050:	f103 0301 	add.w	r3, r3, #1
      while ((HAL_IS_BIT_SET(PWR->SR2, PWR_SR2_VOSF)) && (wait_loop_index != 0U))
 8001054:	d5e1      	bpl.n	800101a <HAL_PWREx_ControlVoltageScaling+0x8a>
 8001056:	e001      	b.n	800105c <HAL_PWREx_ControlVoltageScaling+0xcc>
 8001058:	2b00      	cmp	r3, #0
 800105a:	d0de      	beq.n	800101a <HAL_PWREx_ControlVoltageScaling+0x8a>
 800105c:	6951      	ldr	r1, [r2, #20]
 800105e:	0549      	lsls	r1, r1, #21
        wait_loop_index--;
 8001060:	f103 33ff 	add.w	r3, r3, #4294967295	@ 0xffffffff
      while ((HAL_IS_BIT_SET(PWR->SR2, PWR_SR2_VOSF)) && (wait_loop_index != 0U))
 8001064:	d5d9      	bpl.n	800101a <HAL_PWREx_ControlVoltageScaling+0x8a>
 8001066:	e7f7      	b.n	8001058 <HAL_PWREx_ControlVoltageScaling+0xc8>
 8001068:	40007000 	.word	0x40007000
 800106c:	20000004 	.word	0x20000004
 8001070:	431bde83 	.word	0x431bde83

08001074 <HAL_PWREx_DisableUCPDDeadBattery>:
  * @retval None
  */
void HAL_PWREx_DisableUCPDDeadBattery(void)
{
  /* Write 1 to disable the USB Type-C dead battery pull-down behavior */
  SET_BIT(PWR->CR3, PWR_CR3_UCPD_DBDIS);
 8001074:	4a02      	ldr	r2, [pc, #8]	@ (8001080 <HAL_PWREx_DisableUCPDDeadBattery+0xc>)
 8001076:	6893      	ldr	r3, [r2, #8]
 8001078:	f443 4380 	orr.w	r3, r3, #16384	@ 0x4000
 800107c:	6093      	str	r3, [r2, #8]
}
 800107e:	4770      	bx	lr
 8001080:	40007000 	.word	0x40007000

08001084 <HAL_RCC_OscConfig>:
  uint32_t tickstart;
  uint32_t temp_sysclksrc;
  uint32_t temp_pllckcfg;

  /* Check Null pointer */
  if (RCC_OscInitStruct == NULL)
 8001084:	2800      	cmp	r0, #0
 8001086:	f000 81bd 	beq.w	8001404 <HAL_RCC_OscConfig+0x380>
{
 800108a:	e92d 41f0 	stmdb	sp!, {r4, r5, r6, r7, r8, lr}

  /* Check the parameters */
  assert_param(IS_RCC_OSCILLATORTYPE(RCC_OscInitStruct->OscillatorType));

  /*------------------------------- HSE Configuration ------------------------*/
  if (((RCC_OscInitStruct->OscillatorType) & RCC_OSCILLATORTYPE_HSE) == RCC_OSCILLATORTYPE_HSE)
 800108e:	6803      	ldr	r3, [r0, #0]
 8001090:	07d9      	lsls	r1, r3, #31
{
 8001092:	b082      	sub	sp, #8
 8001094:	4604      	mov	r4, r0
  if (((RCC_OscInitStruct->OscillatorType) & RCC_OSCILLATORTYPE_HSE) == RCC_OSCILLATORTYPE_HSE)
 8001096:	d512      	bpl.n	80010be <HAL_RCC_OscConfig+0x3a>
  {
    /* Check the parameters */
    assert_param(IS_RCC_HSE(RCC_OscInitStruct->HSEState));

    temp_sysclksrc = __HAL_RCC_GET_SYSCLK_SOURCE();
 8001098:	49a6      	ldr	r1, [pc, #664]	@ (8001334 <HAL_RCC_OscConfig+0x2b0>)
 800109a:	688a      	ldr	r2, [r1, #8]
    temp_pllckcfg = __HAL_RCC_GET_PLL_OSCSOURCE();
 800109c:	68c9      	ldr	r1, [r1, #12]
    temp_sysclksrc = __HAL_RCC_GET_SYSCLK_SOURCE();
 800109e:	f002 020c 	and.w	r2, r2, #12

    /* When the HSE is used as system clock or clock source for PLL in these cases it is not allowed to be disabled */
    if (((temp_sysclksrc == RCC_CFGR_SWS_PLL) && (temp_pllckcfg == RCC_PLLSOURCE_HSE)) || (temp_sysclksrc == RCC_CFGR_SWS_HSE))
 80010a2:	2a0c      	cmp	r2, #12
 80010a4:	f000 80d0 	beq.w	8001248 <HAL_RCC_OscConfig+0x1c4>
 80010a8:	2a08      	cmp	r2, #8
 80010aa:	f040 80d2 	bne.w	8001252 <HAL_RCC_OscConfig+0x1ce>
    {
      if ((READ_BIT(RCC->CR, RCC_CR_HSERDY) != 0U) && (RCC_OscInitStruct->HSEState == RCC_HSE_OFF))
 80010ae:	4aa1      	ldr	r2, [pc, #644]	@ (8001334 <HAL_RCC_OscConfig+0x2b0>)
 80010b0:	6812      	ldr	r2, [r2, #0]
 80010b2:	0392      	lsls	r2, r2, #14
 80010b4:	d503      	bpl.n	80010be <HAL_RCC_OscConfig+0x3a>
 80010b6:	6862      	ldr	r2, [r4, #4]
 80010b8:	2a00      	cmp	r2, #0
 80010ba:	f000 8137 	beq.w	800132c <HAL_RCC_OscConfig+0x2a8>
        }
      }
    }
  }
  /*----------------------------- HSI Configuration --------------------------*/
  if (((RCC_OscInitStruct->OscillatorType) & RCC_OSCILLATORTYPE_HSI) == RCC_OSCILLATORTYPE_HSI)
 80010be:	079a      	lsls	r2, r3, #30
 80010c0:	d522      	bpl.n	8001108 <HAL_RCC_OscConfig+0x84>
    /* Check the parameters */
    assert_param(IS_RCC_HSI(RCC_OscInitStruct->HSIState));
    assert_param(IS_RCC_HSI_CALIBRATION_VALUE(RCC_OscInitStruct->HSICalibrationValue));

    /* Check if HSI is used as system clock or as PLL source when PLL is selected as system clock */
    temp_sysclksrc = __HAL_RCC_GET_SYSCLK_SOURCE();
 80010c2:	4a9c      	ldr	r2, [pc, #624]	@ (8001334 <HAL_RCC_OscConfig+0x2b0>)
 80010c4:	6893      	ldr	r3, [r2, #8]
    temp_pllckcfg = __HAL_RCC_GET_PLL_OSCSOURCE();
 80010c6:	68d2      	ldr	r2, [r2, #12]
    temp_sysclksrc = __HAL_RCC_GET_SYSCLK_SOURCE();
 80010c8:	f003 030c 	and.w	r3, r3, #12
    if (((temp_sysclksrc == RCC_CFGR_SWS_PLL) && (temp_pllckcfg == RCC_PLLSOURCE_HSI)) || (temp_sysclksrc == RCC_CFGR_SWS_HSI))
 80010cc:	2b0c      	cmp	r3, #12
 80010ce:	f000 80f8 	beq.w	80012c2 <HAL_RCC_OscConfig+0x23e>
 80010d2:	2b04      	cmp	r3, #4
 80010d4:	f040 80fa 	bne.w	80012cc <HAL_RCC_OscConfig+0x248>
    {
      /* When HSI is used as system clock it will not be disabled */
      if ((READ_BIT(RCC->CR, RCC_CR_HSIRDY) != 0U) && (RCC_OscInitStruct->HSIState == RCC_HSI_OFF))
 80010d8:	4b96      	ldr	r3, [pc, #600]	@ (8001334 <HAL_RCC_OscConfig+0x2b0>)
 80010da:	681b      	ldr	r3, [r3, #0]
 80010dc:	055b      	lsls	r3, r3, #21
 80010de:	d503      	bpl.n	80010e8 <HAL_RCC_OscConfig+0x64>
 80010e0:	68e3      	ldr	r3, [r4, #12]
 80010e2:	2b00      	cmp	r3, #0
 80010e4:	f000 8122 	beq.w	800132c <HAL_RCC_OscConfig+0x2a8>
      }
      /* Otherwise, just the calibration is allowed */
      else
      {
        /* Adjusts the Internal High Speed oscillator (HSI) calibration value.*/
        __HAL_RCC_HSI_CALIBRATIONVALUE_ADJUST(RCC_OscInitStruct->HSICalibrationValue);
 80010e8:	4a92      	ldr	r2, [pc, #584]	@ (8001334 <HAL_RCC_OscConfig+0x2b0>)
 80010ea:	6920      	ldr	r0, [r4, #16]
 80010ec:	6853      	ldr	r3, [r2, #4]

        /* Adapt Systick interrupt period */
        if (HAL_InitTick(uwTickPrio) != HAL_OK)
 80010ee:	4992      	ldr	r1, [pc, #584]	@ (8001338 <HAL_RCC_OscConfig+0x2b4>)
        __HAL_RCC_HSI_CALIBRATIONVALUE_ADJUST(RCC_OscInitStruct->HSICalibrationValue);
 80010f0:	f023 43fe 	bic.w	r3, r3, #2130706432	@ 0x7f000000
 80010f4:	ea43 6300 	orr.w	r3, r3, r0, lsl #24
 80010f8:	6053      	str	r3, [r2, #4]
        if (HAL_InitTick(uwTickPrio) != HAL_OK)
 80010fa:	6808      	ldr	r0, [r1, #0]
 80010fc:	f7ff fcde 	bl	8000abc <HAL_InitTick>
 8001100:	2800      	cmp	r0, #0
 8001102:	f040 8113 	bne.w	800132c <HAL_RCC_OscConfig+0x2a8>
        }
      }
    }
  }
  /*------------------------------ LSI Configuration -------------------------*/
  if (((RCC_OscInitStruct->OscillatorType) & RCC_OSCILLATORTYPE_LSI) == RCC_OSCILLATORTYPE_LSI)
 8001106:	6823      	ldr	r3, [r4, #0]
 8001108:	071a      	lsls	r2, r3, #28
 800110a:	d519      	bpl.n	8001140 <HAL_RCC_OscConfig+0xbc>
  {
    /* Check the parameters */
    assert_param(IS_RCC_LSI(RCC_OscInitStruct->LSIState));

    /* Check the LSI State */
    if(RCC_OscInitStruct->LSIState != RCC_LSI_OFF)
 800110c:	6963      	ldr	r3, [r4, #20]
    {
      /* Enable the Internal Low Speed oscillator (LSI). */
      __HAL_RCC_LSI_ENABLE();
 800110e:	4d89      	ldr	r5, [pc, #548]	@ (8001334 <HAL_RCC_OscConfig+0x2b0>)
    if(RCC_OscInitStruct->LSIState != RCC_LSI_OFF)
 8001110:	2b00      	cmp	r3, #0
 8001112:	f000 80c2 	beq.w	800129a <HAL_RCC_OscConfig+0x216>
      __HAL_RCC_LSI_ENABLE();
 8001116:	f8d5 3094 	ldr.w	r3, [r5, #148]	@ 0x94
 800111a:	f043 0301 	orr.w	r3, r3, #1
 800111e:	f8c5 3094 	str.w	r3, [r5, #148]	@ 0x94

      /* Get Start Tick*/
      tickstart = HAL_GetTick();
 8001122:	f7ff fd0d 	bl	8000b40 <HAL_GetTick>
 8001126:	4606      	mov	r6, r0

      /* Wait till LSI is ready */
      while (READ_BIT(RCC->CSR, RCC_CSR_LSIRDY) == 0U)
 8001128:	e005      	b.n	8001136 <HAL_RCC_OscConfig+0xb2>
      {
        if ((HAL_GetTick() - tickstart) > LSI_TIMEOUT_VALUE)
 800112a:	f7ff fd09 	bl	8000b40 <HAL_GetTick>
 800112e:	1b80      	subs	r0, r0, r6
 8001130:	2802      	cmp	r0, #2
 8001132:	f200 8117 	bhi.w	8001364 <HAL_RCC_OscConfig+0x2e0>
      while (READ_BIT(RCC->CSR, RCC_CSR_LSIRDY) == 0U)
 8001136:	f8d5 3094 	ldr.w	r3, [r5, #148]	@ 0x94
 800113a:	079b      	lsls	r3, r3, #30
 800113c:	d5f5      	bpl.n	800112a <HAL_RCC_OscConfig+0xa6>
        }
      }
    }
  }
  /*------------------------------ LSE Configuration -------------------------*/
  if (((RCC_OscInitStruct->OscillatorType) & RCC_OSCILLATORTYPE_LSE) == RCC_OSCILLATORTYPE_LSE)
 800113e:	6823      	ldr	r3, [r4, #0]
 8001140:	075d      	lsls	r5, r3, #29
 8001142:	d541      	bpl.n	80011c8 <HAL_RCC_OscConfig+0x144>
    /* Check the parameters */
    assert_param(IS_RCC_LSE(RCC_OscInitStruct->LSEState));

    /* Update LSE configuration in Backup Domain control register    */
    /* Requires to enable write access to Backup Domain if necessary */
    if (__HAL_RCC_PWR_IS_CLK_DISABLED() != 0U)
 8001144:	4b7b      	ldr	r3, [pc, #492]	@ (8001334 <HAL_RCC_OscConfig+0x2b0>)
 8001146:	6d9a      	ldr	r2, [r3, #88]	@ 0x58
 8001148:	00d0      	lsls	r0, r2, #3
 800114a:	f100 810f 	bmi.w	800136c <HAL_RCC_OscConfig+0x2e8>
    {
      __HAL_RCC_PWR_CLK_ENABLE();
 800114e:	6d9a      	ldr	r2, [r3, #88]	@ 0x58
 8001150:	f042 5280 	orr.w	r2, r2, #268435456	@ 0x10000000
 8001154:	659a      	str	r2, [r3, #88]	@ 0x58
 8001156:	6d9b      	ldr	r3, [r3, #88]	@ 0x58
 8001158:	f003 5380 	and.w	r3, r3, #268435456	@ 0x10000000
 800115c:	9301      	str	r3, [sp, #4]
 800115e:	9b01      	ldr	r3, [sp, #4]
      pwrclkchanged = SET;
 8001160:	2501      	movs	r5, #1
    }

    if (HAL_IS_BIT_CLR(PWR->CR1, PWR_CR1_DBP))
 8001162:	4e76      	ldr	r6, [pc, #472]	@ (800133c <HAL_RCC_OscConfig+0x2b8>)
 8001164:	6833      	ldr	r3, [r6, #0]
 8001166:	05d9      	lsls	r1, r3, #23
 8001168:	f140 812e 	bpl.w	80013c8 <HAL_RCC_OscConfig+0x344>
        }
      }
    }

    /* Set the new LSE configuration -----------------------------------------*/
    __HAL_RCC_LSE_CONFIG(RCC_OscInitStruct->LSEState);
 800116c:	68a3      	ldr	r3, [r4, #8]
 800116e:	2b01      	cmp	r3, #1
 8001170:	f000 80fe 	beq.w	8001370 <HAL_RCC_OscConfig+0x2ec>
 8001174:	2b05      	cmp	r3, #5
 8001176:	f000 8184 	beq.w	8001482 <HAL_RCC_OscConfig+0x3fe>
 800117a:	4e6e      	ldr	r6, [pc, #440]	@ (8001334 <HAL_RCC_OscConfig+0x2b0>)
 800117c:	f8d6 2090 	ldr.w	r2, [r6, #144]	@ 0x90
 8001180:	f022 0201 	bic.w	r2, r2, #1
 8001184:	f8c6 2090 	str.w	r2, [r6, #144]	@ 0x90
 8001188:	f8d6 2090 	ldr.w	r2, [r6, #144]	@ 0x90
 800118c:	f022 0204 	bic.w	r2, r2, #4
 8001190:	f8c6 2090 	str.w	r2, [r6, #144]	@ 0x90

    /* Check the LSE State */
    if (RCC_OscInitStruct->LSEState != RCC_LSE_OFF)
 8001194:	2b00      	cmp	r3, #0
 8001196:	f040 80f2 	bne.w	800137e <HAL_RCC_OscConfig+0x2fa>
      }
    }
    else
    {
      /* Get Start Tick*/
      tickstart = HAL_GetTick();
 800119a:	f7ff fcd1 	bl	8000b40 <HAL_GetTick>

      /* Wait till LSE is disabled */
      while (READ_BIT(RCC->BDCR, RCC_BDCR_LSERDY) != 0U)
      {
        if((HAL_GetTick() - tickstart) > RCC_LSE_TIMEOUT_VALUE)
 800119e:	f241 3888 	movw	r8, #5000	@ 0x1388
      tickstart = HAL_GetTick();
 80011a2:	4607      	mov	r7, r0
      while (READ_BIT(RCC->BDCR, RCC_BDCR_LSERDY) != 0U)
 80011a4:	e005      	b.n	80011b2 <HAL_RCC_OscConfig+0x12e>
        if((HAL_GetTick() - tickstart) > RCC_LSE_TIMEOUT_VALUE)
 80011a6:	f7ff fccb 	bl	8000b40 <HAL_GetTick>
 80011aa:	1bc0      	subs	r0, r0, r7
 80011ac:	4540      	cmp	r0, r8
 80011ae:	f200 80d9 	bhi.w	8001364 <HAL_RCC_OscConfig+0x2e0>
      while (READ_BIT(RCC->BDCR, RCC_BDCR_LSERDY) != 0U)
 80011b2:	f8d6 3090 	ldr.w	r3, [r6, #144]	@ 0x90
 80011b6:	0799      	lsls	r1, r3, #30
 80011b8:	d4f5      	bmi.n	80011a6 <HAL_RCC_OscConfig+0x122>
        }
      }
    }

    /* Restore clock configuration if changed */
    if (pwrclkchanged == SET)
 80011ba:	b125      	cbz	r5, 80011c6 <HAL_RCC_OscConfig+0x142>
    {
      __HAL_RCC_PWR_CLK_DISABLE();
 80011bc:	4a5d      	ldr	r2, [pc, #372]	@ (8001334 <HAL_RCC_OscConfig+0x2b0>)
 80011be:	6d93      	ldr	r3, [r2, #88]	@ 0x58
 80011c0:	f023 5380 	bic.w	r3, r3, #268435456	@ 0x10000000
 80011c4:	6593      	str	r3, [r2, #88]	@ 0x58
    }
  }

  /*------------------------------ HSI48 Configuration -----------------------*/
  if(((RCC_OscInitStruct->OscillatorType) & RCC_OSCILLATORTYPE_HSI48) == RCC_OSCILLATORTYPE_HSI48)
 80011c6:	6823      	ldr	r3, [r4, #0]
 80011c8:	069a      	lsls	r2, r3, #26
 80011ca:	d518      	bpl.n	80011fe <HAL_RCC_OscConfig+0x17a>
  {
    /* Check the parameters */
    assert_param(IS_RCC_HSI48(RCC_OscInitStruct->HSI48State));

    /* Check the HSI48 State */
    if(RCC_OscInitStruct->HSI48State != RCC_HSI48_OFF)
 80011cc:	69a3      	ldr	r3, [r4, #24]
    {
      /* Enable the Internal Low Speed oscillator (HSI48). */
      __HAL_RCC_HSI48_ENABLE();
 80011ce:	4d59      	ldr	r5, [pc, #356]	@ (8001334 <HAL_RCC_OscConfig+0x2b0>)
    if(RCC_OscInitStruct->HSI48State != RCC_HSI48_OFF)
 80011d0:	2b00      	cmp	r3, #0
 80011d2:	f000 80e5 	beq.w	80013a0 <HAL_RCC_OscConfig+0x31c>
      __HAL_RCC_HSI48_ENABLE();
 80011d6:	f8d5 3098 	ldr.w	r3, [r5, #152]	@ 0x98
 80011da:	f043 0301 	orr.w	r3, r3, #1
 80011de:	f8c5 3098 	str.w	r3, [r5, #152]	@ 0x98

      /* Get Start Tick*/
      tickstart = HAL_GetTick();
 80011e2:	f7ff fcad 	bl	8000b40 <HAL_GetTick>
 80011e6:	4606      	mov	r6, r0

      /* Wait till HSI48 is ready */
      while(READ_BIT(RCC->CRRCR, RCC_CRRCR_HSI48RDY) == 0U)
 80011e8:	e005      	b.n	80011f6 <HAL_RCC_OscConfig+0x172>
      {
        if((HAL_GetTick() - tickstart) > HSI48_TIMEOUT_VALUE)
 80011ea:	f7ff fca9 	bl	8000b40 <HAL_GetTick>
 80011ee:	1b80      	subs	r0, r0, r6
 80011f0:	2802      	cmp	r0, #2
 80011f2:	f200 80b7 	bhi.w	8001364 <HAL_RCC_OscConfig+0x2e0>
      while(READ_BIT(RCC->CRRCR, RCC_CRRCR_HSI48RDY) == 0U)
 80011f6:	f8d5 3098 	ldr.w	r3, [r5, #152]	@ 0x98
 80011fa:	079b      	lsls	r3, r3, #30
 80011fc:	d5f5      	bpl.n	80011ea <HAL_RCC_OscConfig+0x166>

  /*-------------------------------- PLL Configuration -----------------------*/
  /* Check the parameters */
  assert_param(IS_RCC_PLL(RCC_OscInitStruct->PLL.PLLState));

  if (RCC_OscInitStruct->PLL.PLLState != RCC_PLL_NONE)
 80011fe:	69e3      	ldr	r3, [r4, #28]
 8001200:	b1f3      	cbz	r3, 8001240 <HAL_RCC_OscConfig+0x1bc>
  {
    /* Check if the PLL is used as system clock or not */
    if (__HAL_RCC_GET_SYSCLK_SOURCE() != RCC_CFGR_SWS_PLL)
 8001202:	4d4c      	ldr	r5, [pc, #304]	@ (8001334 <HAL_RCC_OscConfig+0x2b0>)
 8001204:	68aa      	ldr	r2, [r5, #8]
 8001206:	f002 020c 	and.w	r2, r2, #12
 800120a:	2a0c      	cmp	r2, #12
 800120c:	f000 8147 	beq.w	800149e <HAL_RCC_OscConfig+0x41a>
    {
      if (RCC_OscInitStruct->PLL.PLLState == RCC_PLL_ON)
 8001210:	2b02      	cmp	r3, #2
        assert_param(IS_RCC_PLLP_VALUE(RCC_OscInitStruct->PLL.PLLP));
        assert_param(IS_RCC_PLLQ_VALUE(RCC_OscInitStruct->PLL.PLLQ));
        assert_param(IS_RCC_PLLR_VALUE(RCC_OscInitStruct->PLL.PLLR));

        /* Disable the main PLL. */
        __HAL_RCC_PLL_DISABLE();
 8001212:	682b      	ldr	r3, [r5, #0]
 8001214:	f023 7380 	bic.w	r3, r3, #16777216	@ 0x1000000
 8001218:	602b      	str	r3, [r5, #0]
      if (RCC_OscInitStruct->PLL.PLLState == RCC_PLL_ON)
 800121a:	f000 80f5 	beq.w	8001408 <HAL_RCC_OscConfig+0x384>
      {
        /* Disable the main PLL. */
        __HAL_RCC_PLL_DISABLE();

        /* Get Start Tick*/
        tickstart = HAL_GetTick();
 800121e:	f7ff fc8f 	bl	8000b40 <HAL_GetTick>
 8001222:	4604      	mov	r4, r0

        /* Wait till PLL is disabled */
        while (READ_BIT(RCC->CR, RCC_CR_PLLRDY) != 0U)
 8001224:	e005      	b.n	8001232 <HAL_RCC_OscConfig+0x1ae>
        {
          if ((HAL_GetTick() - tickstart) > PLL_TIMEOUT_VALUE)
 8001226:	f7ff fc8b 	bl	8000b40 <HAL_GetTick>
 800122a:	1b00      	subs	r0, r0, r4
 800122c:	2802      	cmp	r0, #2
 800122e:	f200 8099 	bhi.w	8001364 <HAL_RCC_OscConfig+0x2e0>
        while (READ_BIT(RCC->CR, RCC_CR_PLLRDY) != 0U)
 8001232:	682b      	ldr	r3, [r5, #0]
 8001234:	019b      	lsls	r3, r3, #6
 8001236:	d4f6      	bmi.n	8001226 <HAL_RCC_OscConfig+0x1a2>
            return HAL_TIMEOUT;
          }
        }

        /* Unselect PLL clock source and disable outputs to save power */
        RCC->PLLCFGR &= ~(RCC_PLLCFGR_PLLSRC | RCC_PLL_SYSCLK | RCC_PLL_48M1CLK | RCC_PLL_ADCCLK);
 8001238:	68ea      	ldr	r2, [r5, #12]
 800123a:	4b41      	ldr	r3, [pc, #260]	@ (8001340 <HAL_RCC_OscConfig+0x2bc>)
 800123c:	4013      	ands	r3, r2
 800123e:	60eb      	str	r3, [r5, #12]
      }
    }
  }
  }

  return HAL_OK;
 8001240:	2000      	movs	r0, #0
}
 8001242:	b002      	add	sp, #8
 8001244:	e8bd 81f0 	ldmia.w	sp!, {r4, r5, r6, r7, r8, pc}
    temp_pllckcfg = __HAL_RCC_GET_PLL_OSCSOURCE();
 8001248:	f001 0103 	and.w	r1, r1, #3
    if (((temp_sysclksrc == RCC_CFGR_SWS_PLL) && (temp_pllckcfg == RCC_PLLSOURCE_HSE)) || (temp_sysclksrc == RCC_CFGR_SWS_HSE))
 800124c:	2903      	cmp	r1, #3
 800124e:	f43f af2e 	beq.w	80010ae <HAL_RCC_OscConfig+0x2a>
      __HAL_RCC_HSE_CONFIG(RCC_OscInitStruct->HSEState);
 8001252:	6863      	ldr	r3, [r4, #4]
 8001254:	f5b3 3f80 	cmp.w	r3, #65536	@ 0x10000
 8001258:	d055      	beq.n	8001306 <HAL_RCC_OscConfig+0x282>
 800125a:	f5b3 2fa0 	cmp.w	r3, #327680	@ 0x50000
 800125e:	f000 80c4 	beq.w	80013ea <HAL_RCC_OscConfig+0x366>
 8001262:	4d34      	ldr	r5, [pc, #208]	@ (8001334 <HAL_RCC_OscConfig+0x2b0>)
 8001264:	682a      	ldr	r2, [r5, #0]
 8001266:	f422 3280 	bic.w	r2, r2, #65536	@ 0x10000
 800126a:	602a      	str	r2, [r5, #0]
 800126c:	682a      	ldr	r2, [r5, #0]
 800126e:	f422 2280 	bic.w	r2, r2, #262144	@ 0x40000
 8001272:	602a      	str	r2, [r5, #0]
      if (RCC_OscInitStruct->HSEState != RCC_HSE_OFF)
 8001274:	2b00      	cmp	r3, #0
 8001276:	d14b      	bne.n	8001310 <HAL_RCC_OscConfig+0x28c>
        tickstart = HAL_GetTick();
 8001278:	f7ff fc62 	bl	8000b40 <HAL_GetTick>
 800127c:	4606      	mov	r6, r0
        while (READ_BIT(RCC->CR, RCC_CR_HSERDY) != 0U)
 800127e:	e004      	b.n	800128a <HAL_RCC_OscConfig+0x206>
          if ((HAL_GetTick() - tickstart) > HSE_TIMEOUT_VALUE)
 8001280:	f7ff fc5e 	bl	8000b40 <HAL_GetTick>
 8001284:	1b80      	subs	r0, r0, r6
 8001286:	2864      	cmp	r0, #100	@ 0x64
 8001288:	d86c      	bhi.n	8001364 <HAL_RCC_OscConfig+0x2e0>
        while (READ_BIT(RCC->CR, RCC_CR_HSERDY) != 0U)
 800128a:	682b      	ldr	r3, [r5, #0]
 800128c:	0399      	lsls	r1, r3, #14
 800128e:	d4f7      	bmi.n	8001280 <HAL_RCC_OscConfig+0x1fc>
  if (((RCC_OscInitStruct->OscillatorType) & RCC_OSCILLATORTYPE_HSI) == RCC_OSCILLATORTYPE_HSI)
 8001290:	6823      	ldr	r3, [r4, #0]
 8001292:	079a      	lsls	r2, r3, #30
 8001294:	f57f af38 	bpl.w	8001108 <HAL_RCC_OscConfig+0x84>
 8001298:	e713      	b.n	80010c2 <HAL_RCC_OscConfig+0x3e>
      __HAL_RCC_LSI_DISABLE();
 800129a:	f8d5 3094 	ldr.w	r3, [r5, #148]	@ 0x94
 800129e:	f023 0301 	bic.w	r3, r3, #1
 80012a2:	f8c5 3094 	str.w	r3, [r5, #148]	@ 0x94
      tickstart = HAL_GetTick();
 80012a6:	f7ff fc4b 	bl	8000b40 <HAL_GetTick>
 80012aa:	4606      	mov	r6, r0
      while(READ_BIT(RCC->CSR, RCC_CSR_LSIRDY) != 0U)
 80012ac:	e004      	b.n	80012b8 <HAL_RCC_OscConfig+0x234>
        if((HAL_GetTick() - tickstart) > LSI_TIMEOUT_VALUE)
 80012ae:	f7ff fc47 	bl	8000b40 <HAL_GetTick>
 80012b2:	1b80      	subs	r0, r0, r6
 80012b4:	2802      	cmp	r0, #2
 80012b6:	d855      	bhi.n	8001364 <HAL_RCC_OscConfig+0x2e0>
      while(READ_BIT(RCC->CSR, RCC_CSR_LSIRDY) != 0U)
 80012b8:	f8d5 3094 	ldr.w	r3, [r5, #148]	@ 0x94
 80012bc:	079f      	lsls	r7, r3, #30
 80012be:	d4f6      	bmi.n	80012ae <HAL_RCC_OscConfig+0x22a>
 80012c0:	e73d      	b.n	800113e <HAL_RCC_OscConfig+0xba>
    temp_pllckcfg = __HAL_RCC_GET_PLL_OSCSOURCE();
 80012c2:	f002 0203 	and.w	r2, r2, #3
    if (((temp_sysclksrc == RCC_CFGR_SWS_PLL) && (temp_pllckcfg == RCC_PLLSOURCE_HSI)) || (temp_sysclksrc == RCC_CFGR_SWS_HSI))
 80012c6:	2a02      	cmp	r2, #2
 80012c8:	f43f af06 	beq.w	80010d8 <HAL_RCC_OscConfig+0x54>
      if (RCC_OscInitStruct->HSIState != RCC_HSI_OFF)
 80012cc:	68e3      	ldr	r3, [r4, #12]
        __HAL_RCC_HSI_ENABLE();
 80012ce:	4d19      	ldr	r5, [pc, #100]	@ (8001334 <HAL_RCC_OscConfig+0x2b0>)
      if (RCC_OscInitStruct->HSIState != RCC_HSI_OFF)
 80012d0:	2b00      	cmp	r3, #0
 80012d2:	d037      	beq.n	8001344 <HAL_RCC_OscConfig+0x2c0>
        __HAL_RCC_HSI_ENABLE();
 80012d4:	682b      	ldr	r3, [r5, #0]
 80012d6:	f443 7380 	orr.w	r3, r3, #256	@ 0x100
 80012da:	602b      	str	r3, [r5, #0]
        tickstart = HAL_GetTick();
 80012dc:	f7ff fc30 	bl	8000b40 <HAL_GetTick>
 80012e0:	4606      	mov	r6, r0
        while (READ_BIT(RCC->CR, RCC_CR_HSIRDY) == 0U)
 80012e2:	e004      	b.n	80012ee <HAL_RCC_OscConfig+0x26a>
          if ((HAL_GetTick() - tickstart) > HSI_TIMEOUT_VALUE)
 80012e4:	f7ff fc2c 	bl	8000b40 <HAL_GetTick>
 80012e8:	1b80      	subs	r0, r0, r6
 80012ea:	2802      	cmp	r0, #2
 80012ec:	d83a      	bhi.n	8001364 <HAL_RCC_OscConfig+0x2e0>
        while (READ_BIT(RCC->CR, RCC_CR_HSIRDY) == 0U)
 80012ee:	682b      	ldr	r3, [r5, #0]
 80012f0:	055f      	lsls	r7, r3, #21
 80012f2:	d5f7      	bpl.n	80012e4 <HAL_RCC_OscConfig+0x260>
        __HAL_RCC_HSI_CALIBRATIONVALUE_ADJUST(RCC_OscInitStruct->HSICalibrationValue);
 80012f4:	686b      	ldr	r3, [r5, #4]
 80012f6:	6922      	ldr	r2, [r4, #16]
 80012f8:	f023 43fe 	bic.w	r3, r3, #2130706432	@ 0x7f000000
 80012fc:	ea43 6302 	orr.w	r3, r3, r2, lsl #24
 8001300:	606b      	str	r3, [r5, #4]
  if (((RCC_OscInitStruct->OscillatorType) & RCC_OSCILLATORTYPE_LSI) == RCC_OSCILLATORTYPE_LSI)
 8001302:	6823      	ldr	r3, [r4, #0]
 8001304:	e700      	b.n	8001108 <HAL_RCC_OscConfig+0x84>
      __HAL_RCC_HSE_CONFIG(RCC_OscInitStruct->HSEState);
 8001306:	4a0b      	ldr	r2, [pc, #44]	@ (8001334 <HAL_RCC_OscConfig+0x2b0>)
 8001308:	6813      	ldr	r3, [r2, #0]
 800130a:	f443 3380 	orr.w	r3, r3, #65536	@ 0x10000
 800130e:	6013      	str	r3, [r2, #0]
        tickstart = HAL_GetTick();
 8001310:	f7ff fc16 	bl	8000b40 <HAL_GetTick>
        while (READ_BIT(RCC->CR, RCC_CR_HSERDY) == 0U)
 8001314:	4e07      	ldr	r6, [pc, #28]	@ (8001334 <HAL_RCC_OscConfig+0x2b0>)
        tickstart = HAL_GetTick();
 8001316:	4605      	mov	r5, r0
        while (READ_BIT(RCC->CR, RCC_CR_HSERDY) == 0U)
 8001318:	e004      	b.n	8001324 <HAL_RCC_OscConfig+0x2a0>
          if ((HAL_GetTick() - tickstart) > HSE_TIMEOUT_VALUE)
 800131a:	f7ff fc11 	bl	8000b40 <HAL_GetTick>
 800131e:	1b40      	subs	r0, r0, r5
 8001320:	2864      	cmp	r0, #100	@ 0x64
 8001322:	d81f      	bhi.n	8001364 <HAL_RCC_OscConfig+0x2e0>
        while (READ_BIT(RCC->CR, RCC_CR_HSERDY) == 0U)
 8001324:	6833      	ldr	r3, [r6, #0]
 8001326:	039f      	lsls	r7, r3, #14
 8001328:	d5f7      	bpl.n	800131a <HAL_RCC_OscConfig+0x296>
 800132a:	e7b1      	b.n	8001290 <HAL_RCC_OscConfig+0x20c>
    return HAL_ERROR;
 800132c:	2001      	movs	r0, #1
}
 800132e:	b002      	add	sp, #8
 8001330:	e8bd 81f0 	ldmia.w	sp!, {r4, r5, r6, r7, r8, pc}
 8001334:	40021000 	.word	0x40021000
 8001338:	2000000c 	.word	0x2000000c
 800133c:	40007000 	.word	0x40007000
 8001340:	feeefffc 	.word	0xfeeefffc
        __HAL_RCC_HSI_DISABLE();
 8001344:	682b      	ldr	r3, [r5, #0]
 8001346:	f423 7380 	bic.w	r3, r3, #256	@ 0x100
 800134a:	602b      	str	r3, [r5, #0]
        tickstart = HAL_GetTick();
 800134c:	f7ff fbf8 	bl	8000b40 <HAL_GetTick>
 8001350:	4606      	mov	r6, r0
        while (READ_BIT(RCC->CR, RCC_CR_HSIRDY) != 0U)
 8001352:	682b      	ldr	r3, [r5, #0]
 8001354:	0559      	lsls	r1, r3, #21
 8001356:	f57f aed6 	bpl.w	8001106 <HAL_RCC_OscConfig+0x82>
          if ((HAL_GetTick() - tickstart) > HSI_TIMEOUT_VALUE)
 800135a:	f7ff fbf1 	bl	8000b40 <HAL_GetTick>
 800135e:	1b80      	subs	r0, r0, r6
 8001360:	2802      	cmp	r0, #2
 8001362:	d9f6      	bls.n	8001352 <HAL_RCC_OscConfig+0x2ce>
            return HAL_TIMEOUT;
 8001364:	2003      	movs	r0, #3
}
 8001366:	b002      	add	sp, #8
 8001368:	e8bd 81f0 	ldmia.w	sp!, {r4, r5, r6, r7, r8, pc}
    FlagStatus       pwrclkchanged = RESET;
 800136c:	2500      	movs	r5, #0
 800136e:	e6f8      	b.n	8001162 <HAL_RCC_OscConfig+0xde>
    __HAL_RCC_LSE_CONFIG(RCC_OscInitStruct->LSEState);
 8001370:	4a65      	ldr	r2, [pc, #404]	@ (8001508 <HAL_RCC_OscConfig+0x484>)
 8001372:	f8d2 3090 	ldr.w	r3, [r2, #144]	@ 0x90
 8001376:	f043 0301 	orr.w	r3, r3, #1
 800137a:	f8c2 3090 	str.w	r3, [r2, #144]	@ 0x90
      tickstart = HAL_GetTick();
 800137e:	f7ff fbdf 	bl	8000b40 <HAL_GetTick>
      while (READ_BIT(RCC->BDCR, RCC_BDCR_LSERDY) == 0U)
 8001382:	4f61      	ldr	r7, [pc, #388]	@ (8001508 <HAL_RCC_OscConfig+0x484>)
      tickstart = HAL_GetTick();
 8001384:	4606      	mov	r6, r0
        if((HAL_GetTick() - tickstart) > RCC_LSE_TIMEOUT_VALUE)
 8001386:	f241 3888 	movw	r8, #5000	@ 0x1388
      while (READ_BIT(RCC->BDCR, RCC_BDCR_LSERDY) == 0U)
 800138a:	e004      	b.n	8001396 <HAL_RCC_OscConfig+0x312>
        if((HAL_GetTick() - tickstart) > RCC_LSE_TIMEOUT_VALUE)
 800138c:	f7ff fbd8 	bl	8000b40 <HAL_GetTick>
 8001390:	1b80      	subs	r0, r0, r6
 8001392:	4540      	cmp	r0, r8
 8001394:	d8e6      	bhi.n	8001364 <HAL_RCC_OscConfig+0x2e0>
      while (READ_BIT(RCC->BDCR, RCC_BDCR_LSERDY) == 0U)
 8001396:	f8d7 3090 	ldr.w	r3, [r7, #144]	@ 0x90
 800139a:	079b      	lsls	r3, r3, #30
 800139c:	d5f6      	bpl.n	800138c <HAL_RCC_OscConfig+0x308>
 800139e:	e70c      	b.n	80011ba <HAL_RCC_OscConfig+0x136>
      __HAL_RCC_HSI48_DISABLE();
 80013a0:	f8d5 3098 	ldr.w	r3, [r5, #152]	@ 0x98
 80013a4:	f023 0301 	bic.w	r3, r3, #1
 80013a8:	f8c5 3098 	str.w	r3, [r5, #152]	@ 0x98
      tickstart = HAL_GetTick();
 80013ac:	f7ff fbc8 	bl	8000b40 <HAL_GetTick>
 80013b0:	4606      	mov	r6, r0
      while(READ_BIT(RCC->CRRCR, RCC_CRRCR_HSI48RDY) != 0U)
 80013b2:	e004      	b.n	80013be <HAL_RCC_OscConfig+0x33a>
        if((HAL_GetTick() - tickstart) > HSI48_TIMEOUT_VALUE)
 80013b4:	f7ff fbc4 	bl	8000b40 <HAL_GetTick>
 80013b8:	1b80      	subs	r0, r0, r6
 80013ba:	2802      	cmp	r0, #2
 80013bc:	d8d2      	bhi.n	8001364 <HAL_RCC_OscConfig+0x2e0>
      while(READ_BIT(RCC->CRRCR, RCC_CRRCR_HSI48RDY) != 0U)
 80013be:	f8d5 3098 	ldr.w	r3, [r5, #152]	@ 0x98
 80013c2:	079f      	lsls	r7, r3, #30
 80013c4:	d4f6      	bmi.n	80013b4 <HAL_RCC_OscConfig+0x330>
 80013c6:	e71a      	b.n	80011fe <HAL_RCC_OscConfig+0x17a>
      SET_BIT(PWR->CR1, PWR_CR1_DBP);
 80013c8:	6833      	ldr	r3, [r6, #0]
 80013ca:	f443 7380 	orr.w	r3, r3, #256	@ 0x100
 80013ce:	6033      	str	r3, [r6, #0]
      tickstart = HAL_GetTick();
 80013d0:	f7ff fbb6 	bl	8000b40 <HAL_GetTick>
 80013d4:	4607      	mov	r7, r0
      while (HAL_IS_BIT_CLR(PWR->CR1, PWR_CR1_DBP))
 80013d6:	6833      	ldr	r3, [r6, #0]
 80013d8:	05da      	lsls	r2, r3, #23
 80013da:	f53f aec7 	bmi.w	800116c <HAL_RCC_OscConfig+0xe8>
        if ((HAL_GetTick() - tickstart) > RCC_DBP_TIMEOUT_VALUE)
 80013de:	f7ff fbaf 	bl	8000b40 <HAL_GetTick>
 80013e2:	1bc0      	subs	r0, r0, r7
 80013e4:	2802      	cmp	r0, #2
 80013e6:	d9f6      	bls.n	80013d6 <HAL_RCC_OscConfig+0x352>
 80013e8:	e7bc      	b.n	8001364 <HAL_RCC_OscConfig+0x2e0>
      __HAL_RCC_HSE_CONFIG(RCC_OscInitStruct->HSEState);
 80013ea:	f103 4380 	add.w	r3, r3, #1073741824	@ 0x40000000
 80013ee:	f5a3 333c 	sub.w	r3, r3, #192512	@ 0x2f000
 80013f2:	681a      	ldr	r2, [r3, #0]
 80013f4:	f442 2280 	orr.w	r2, r2, #262144	@ 0x40000
 80013f8:	601a      	str	r2, [r3, #0]
 80013fa:	681a      	ldr	r2, [r3, #0]
 80013fc:	f442 3280 	orr.w	r2, r2, #65536	@ 0x10000
 8001400:	601a      	str	r2, [r3, #0]
      if (RCC_OscInitStruct->HSEState != RCC_HSE_OFF)
 8001402:	e785      	b.n	8001310 <HAL_RCC_OscConfig+0x28c>
    return HAL_ERROR;
 8001404:	2001      	movs	r0, #1
}
 8001406:	4770      	bx	lr
        tickstart = HAL_GetTick();
 8001408:	f7ff fb9a 	bl	8000b40 <HAL_GetTick>
 800140c:	4606      	mov	r6, r0
        while (READ_BIT(RCC->CR, RCC_CR_PLLRDY) != 0U)
 800140e:	e004      	b.n	800141a <HAL_RCC_OscConfig+0x396>
          if ((HAL_GetTick() - tickstart) > PLL_TIMEOUT_VALUE)
 8001410:	f7ff fb96 	bl	8000b40 <HAL_GetTick>
 8001414:	1b80      	subs	r0, r0, r6
 8001416:	2802      	cmp	r0, #2
 8001418:	d8a4      	bhi.n	8001364 <HAL_RCC_OscConfig+0x2e0>
        while (READ_BIT(RCC->CR, RCC_CR_PLLRDY) != 0U)
 800141a:	682b      	ldr	r3, [r5, #0]
 800141c:	0199      	lsls	r1, r3, #6
 800141e:	d4f7      	bmi.n	8001410 <HAL_RCC_OscConfig+0x38c>
        __HAL_RCC_PLL_CONFIG(RCC_OscInitStruct->PLL.PLLSource,
 8001420:	68e9      	ldr	r1, [r5, #12]
 8001422:	4b3a      	ldr	r3, [pc, #232]	@ (800150c <HAL_RCC_OscConfig+0x488>)
 8001424:	6a22      	ldr	r2, [r4, #32]
 8001426:	6a60      	ldr	r0, [r4, #36]	@ 0x24
        while (READ_BIT(RCC->CR, RCC_CR_PLLRDY) == 0U)
 8001428:	4e37      	ldr	r6, [pc, #220]	@ (8001508 <HAL_RCC_OscConfig+0x484>)
        __HAL_RCC_PLL_CONFIG(RCC_OscInitStruct->PLL.PLLSource,
 800142a:	400b      	ands	r3, r1
 800142c:	4313      	orrs	r3, r2
 800142e:	e9d4 120a 	ldrd	r1, r2, [r4, #40]	@ 0x28
 8001432:	ea43 2301 	orr.w	r3, r3, r1, lsl #8
 8001436:	ea43 63c2 	orr.w	r3, r3, r2, lsl #27
 800143a:	e9d4 120c 	ldrd	r1, r2, [r4, #48]	@ 0x30
 800143e:	3801      	subs	r0, #1
 8001440:	0849      	lsrs	r1, r1, #1
 8001442:	ea43 1300 	orr.w	r3, r3, r0, lsl #4
 8001446:	3901      	subs	r1, #1
 8001448:	0852      	lsrs	r2, r2, #1
 800144a:	ea43 5341 	orr.w	r3, r3, r1, lsl #21
 800144e:	3a01      	subs	r2, #1
 8001450:	ea43 6342 	orr.w	r3, r3, r2, lsl #25
 8001454:	60eb      	str	r3, [r5, #12]
        __HAL_RCC_PLL_ENABLE();
 8001456:	682b      	ldr	r3, [r5, #0]
 8001458:	f043 7380 	orr.w	r3, r3, #16777216	@ 0x1000000
 800145c:	602b      	str	r3, [r5, #0]
         __HAL_RCC_PLLCLKOUT_ENABLE(RCC_PLL_SYSCLK);
 800145e:	68eb      	ldr	r3, [r5, #12]
 8001460:	f043 7380 	orr.w	r3, r3, #16777216	@ 0x1000000
 8001464:	60eb      	str	r3, [r5, #12]
        tickstart = HAL_GetTick();
 8001466:	f7ff fb6b 	bl	8000b40 <HAL_GetTick>
 800146a:	4604      	mov	r4, r0
        while (READ_BIT(RCC->CR, RCC_CR_PLLRDY) == 0U)
 800146c:	e005      	b.n	800147a <HAL_RCC_OscConfig+0x3f6>
          if ((HAL_GetTick() - tickstart) > PLL_TIMEOUT_VALUE)
 800146e:	f7ff fb67 	bl	8000b40 <HAL_GetTick>
 8001472:	1b00      	subs	r0, r0, r4
 8001474:	2802      	cmp	r0, #2
 8001476:	f63f af75 	bhi.w	8001364 <HAL_RCC_OscConfig+0x2e0>
        while (READ_BIT(RCC->CR, RCC_CR_PLLRDY) == 0U)
 800147a:	6833      	ldr	r3, [r6, #0]
 800147c:	019a      	lsls	r2, r3, #6
 800147e:	d5f6      	bpl.n	800146e <HAL_RCC_OscConfig+0x3ea>
 8001480:	e6de      	b.n	8001240 <HAL_RCC_OscConfig+0x1bc>
    __HAL_RCC_LSE_CONFIG(RCC_OscInitStruct->LSEState);
 8001482:	4b21      	ldr	r3, [pc, #132]	@ (8001508 <HAL_RCC_OscConfig+0x484>)
 8001484:	f8d3 2090 	ldr.w	r2, [r3, #144]	@ 0x90
 8001488:	f042 0204 	orr.w	r2, r2, #4
 800148c:	f8c3 2090 	str.w	r2, [r3, #144]	@ 0x90
 8001490:	f8d3 2090 	ldr.w	r2, [r3, #144]	@ 0x90
 8001494:	f042 0201 	orr.w	r2, r2, #1
 8001498:	f8c3 2090 	str.w	r2, [r3, #144]	@ 0x90
    if (RCC_OscInitStruct->LSEState != RCC_LSE_OFF)
 800149c:	e76f      	b.n	800137e <HAL_RCC_OscConfig+0x2fa>
      if((RCC_OscInitStruct->PLL.PLLState) == RCC_PLL_OFF)
 800149e:	2b01      	cmp	r3, #1
 80014a0:	f43f af44 	beq.w	800132c <HAL_RCC_OscConfig+0x2a8>
      temp_pllckcfg = RCC->PLLCFGR;
 80014a4:	68eb      	ldr	r3, [r5, #12]
      if((READ_BIT(temp_pllckcfg, RCC_PLLCFGR_PLLSRC) != RCC_OscInitStruct->PLL.PLLSource) ||
 80014a6:	6a22      	ldr	r2, [r4, #32]
 80014a8:	f003 0103 	and.w	r1, r3, #3
 80014ac:	4291      	cmp	r1, r2
 80014ae:	f47f af3d 	bne.w	800132c <HAL_RCC_OscConfig+0x2a8>
         (READ_BIT(temp_pllckcfg, RCC_PLLCFGR_PLLM) != (((RCC_OscInitStruct->PLL.PLLM) - 1U) << RCC_PLLCFGR_PLLM_Pos)) ||
 80014b2:	6a61      	ldr	r1, [r4, #36]	@ 0x24
 80014b4:	f003 02f0 	and.w	r2, r3, #240	@ 0xf0
 80014b8:	3901      	subs	r1, #1
      if((READ_BIT(temp_pllckcfg, RCC_PLLCFGR_PLLSRC) != RCC_OscInitStruct->PLL.PLLSource) ||
 80014ba:	ebb2 1f01 	cmp.w	r2, r1, lsl #4
 80014be:	f47f af35 	bne.w	800132c <HAL_RCC_OscConfig+0x2a8>
         (READ_BIT(temp_pllckcfg, RCC_PLLCFGR_PLLN) != ((RCC_OscInitStruct->PLL.PLLN) << RCC_PLLCFGR_PLLN_Pos)) ||
 80014c2:	6aa1      	ldr	r1, [r4, #40]	@ 0x28
 80014c4:	f403 42fe 	and.w	r2, r3, #32512	@ 0x7f00
         (READ_BIT(temp_pllckcfg, RCC_PLLCFGR_PLLM) != (((RCC_OscInitStruct->PLL.PLLM) - 1U) << RCC_PLLCFGR_PLLM_Pos)) ||
 80014c8:	ebb2 2f01 	cmp.w	r2, r1, lsl #8
 80014cc:	f47f af2e 	bne.w	800132c <HAL_RCC_OscConfig+0x2a8>
         (READ_BIT(temp_pllckcfg, RCC_PLLCFGR_PLLPDIV) != ((RCC_OscInitStruct->PLL.PLLP) << RCC_PLLCFGR_PLLPDIV_Pos)) ||
 80014d0:	6ae1      	ldr	r1, [r4, #44]	@ 0x2c
 80014d2:	f003 4278 	and.w	r2, r3, #4160749568	@ 0xf8000000
         (READ_BIT(temp_pllckcfg, RCC_PLLCFGR_PLLN) != ((RCC_OscInitStruct->PLL.PLLN) << RCC_PLLCFGR_PLLN_Pos)) ||
 80014d6:	ebb2 6fc1 	cmp.w	r2, r1, lsl #27
 80014da:	f47f af27 	bne.w	800132c <HAL_RCC_OscConfig+0x2a8>
         (READ_BIT(temp_pllckcfg, RCC_PLLCFGR_PLLQ) != ((((RCC_OscInitStruct->PLL.PLLQ) >> 1U) - 1U) << RCC_PLLCFGR_PLLQ_Pos)) ||
 80014de:	6b22      	ldr	r2, [r4, #48]	@ 0x30
 80014e0:	0852      	lsrs	r2, r2, #1
 80014e2:	f403 01c0 	and.w	r1, r3, #6291456	@ 0x600000
 80014e6:	3a01      	subs	r2, #1
         (READ_BIT(temp_pllckcfg, RCC_PLLCFGR_PLLPDIV) != ((RCC_OscInitStruct->PLL.PLLP) << RCC_PLLCFGR_PLLPDIV_Pos)) ||
 80014e8:	ebb1 5f42 	cmp.w	r1, r2, lsl #21
 80014ec:	f47f af1e 	bne.w	800132c <HAL_RCC_OscConfig+0x2a8>
         (READ_BIT(temp_pllckcfg, RCC_PLLCFGR_PLLR) != ((((RCC_OscInitStruct->PLL.PLLR) >> 1U) - 1U) << RCC_PLLCFGR_PLLR_Pos)))
 80014f0:	6b62      	ldr	r2, [r4, #52]	@ 0x34
 80014f2:	0852      	lsrs	r2, r2, #1
 80014f4:	f003 63c0 	and.w	r3, r3, #100663296	@ 0x6000000
 80014f8:	3a01      	subs	r2, #1
         (READ_BIT(temp_pllckcfg, RCC_PLLCFGR_PLLQ) != ((((RCC_OscInitStruct->PLL.PLLQ) >> 1U) - 1U) << RCC_PLLCFGR_PLLQ_Pos)) ||
 80014fa:	ebb3 6f42 	cmp.w	r3, r2, lsl #25
 80014fe:	bf14      	ite	ne
 8001500:	2001      	movne	r0, #1
 8001502:	2000      	moveq	r0, #0
 8001504:	e69d      	b.n	8001242 <HAL_RCC_OscConfig+0x1be>
 8001506:	bf00      	nop
 8001508:	40021000 	.word	0x40021000
 800150c:	019f800c 	.word	0x019f800c

08001510 <HAL_RCC_GetSysClockFreq>:
uint32_t HAL_RCC_GetSysClockFreq(void)
{
  uint32_t pllvco, pllsource, pllr, pllm;
  uint32_t sysclockfreq;

  if (__HAL_RCC_GET_SYSCLK_SOURCE() == RCC_CFGR_SWS_HSI)
 8001510:	4b18      	ldr	r3, [pc, #96]	@ (8001574 <HAL_RCC_GetSysClockFreq+0x64>)
 8001512:	689a      	ldr	r2, [r3, #8]
 8001514:	f002 020c 	and.w	r2, r2, #12
 8001518:	2a04      	cmp	r2, #4
 800151a:	d026      	beq.n	800156a <HAL_RCC_GetSysClockFreq+0x5a>
  {
    /* HSI used as system clock source */
    sysclockfreq = HSI_VALUE;
  }
  else if (__HAL_RCC_GET_SYSCLK_SOURCE() == RCC_CFGR_SWS_HSE)
 800151c:	689a      	ldr	r2, [r3, #8]
 800151e:	f002 020c 	and.w	r2, r2, #12
 8001522:	2a08      	cmp	r2, #8
 8001524:	d023      	beq.n	800156e <HAL_RCC_GetSysClockFreq+0x5e>
  {
    /* HSE used as system clock source */
    sysclockfreq = HSE_VALUE;
  }
  else if (__HAL_RCC_GET_SYSCLK_SOURCE() == RCC_CFGR_SWS_PLL)
 8001526:	689a      	ldr	r2, [r3, #8]
 8001528:	f002 020c 	and.w	r2, r2, #12
 800152c:	2a0c      	cmp	r2, #12
 800152e:	d001      	beq.n	8001534 <HAL_RCC_GetSysClockFreq+0x24>
    pllr = ((READ_BIT(RCC->PLLCFGR, RCC_PLLCFGR_PLLR) >> RCC_PLLCFGR_PLLR_Pos) + 1U ) * 2U;
    sysclockfreq = pllvco/pllr;
  }
  else
  {
    sysclockfreq = 0U;
 8001530:	2000      	movs	r0, #0
  }

  return sysclockfreq;
}
 8001532:	4770      	bx	lr
    pllsource = READ_BIT(RCC->PLLCFGR, RCC_PLLCFGR_PLLSRC);
 8001534:	68d9      	ldr	r1, [r3, #12]
    pllm = (READ_BIT(RCC->PLLCFGR, RCC_PLLCFGR_PLLM) >> RCC_PLLCFGR_PLLM_Pos) + 1U ;
 8001536:	68da      	ldr	r2, [r3, #12]
      pllvco = (HSI_VALUE / pllm) * (READ_BIT(RCC->PLLCFGR, RCC_PLLCFGR_PLLN) >> RCC_PLLCFGR_PLLN_Pos);
 8001538:	68d8      	ldr	r0, [r3, #12]
    pllsource = READ_BIT(RCC->PLLCFGR, RCC_PLLCFGR_PLLSRC);
 800153a:	f001 0103 	and.w	r1, r1, #3
    switch (pllsource)
 800153e:	2903      	cmp	r1, #3
    pllm = (READ_BIT(RCC->PLLCFGR, RCC_PLLCFGR_PLLM) >> RCC_PLLCFGR_PLLM_Pos) + 1U ;
 8001540:	f3c2 1203 	ubfx	r2, r2, #4, #4
      pllvco = (HSI_VALUE / pllm) * (READ_BIT(RCC->PLLCFGR, RCC_PLLCFGR_PLLN) >> RCC_PLLCFGR_PLLN_Pos);
 8001544:	f3c0 2006 	ubfx	r0, r0, #8, #7
      pllvco = (HSE_VALUE / pllm) * (READ_BIT(RCC->PLLCFGR, RCC_PLLCFGR_PLLN) >> RCC_PLLCFGR_PLLN_Pos);
 8001548:	bf0c      	ite	eq
 800154a:	4b0b      	ldreq	r3, [pc, #44]	@ (8001578 <HAL_RCC_GetSysClockFreq+0x68>)
      pllvco = (HSI_VALUE / pllm) * (READ_BIT(RCC->PLLCFGR, RCC_PLLCFGR_PLLN) >> RCC_PLLCFGR_PLLN_Pos);
 800154c:	4b0b      	ldrne	r3, [pc, #44]	@ (800157c <HAL_RCC_GetSysClockFreq+0x6c>)
    pllm = (READ_BIT(RCC->PLLCFGR, RCC_PLLCFGR_PLLM) >> RCC_PLLCFGR_PLLM_Pos) + 1U ;
 800154e:	3201      	adds	r2, #1
      pllvco = (HSI_VALUE / pllm) * (READ_BIT(RCC->PLLCFGR, RCC_PLLCFGR_PLLN) >> RCC_PLLCFGR_PLLN_Pos);
 8001550:	fbb3 f3f2 	udiv	r3, r3, r2
 8001554:	fb03 f000 	mul.w	r0, r3, r0
    pllr = ((READ_BIT(RCC->PLLCFGR, RCC_PLLCFGR_PLLR) >> RCC_PLLCFGR_PLLR_Pos) + 1U ) * 2U;
 8001558:	4b06      	ldr	r3, [pc, #24]	@ (8001574 <HAL_RCC_GetSysClockFreq+0x64>)
 800155a:	68db      	ldr	r3, [r3, #12]
 800155c:	f3c3 6341 	ubfx	r3, r3, #25, #2
 8001560:	3301      	adds	r3, #1
 8001562:	005b      	lsls	r3, r3, #1
    sysclockfreq = pllvco/pllr;
 8001564:	fbb0 f0f3 	udiv	r0, r0, r3
  return sysclockfreq;
 8001568:	4770      	bx	lr
    sysclockfreq = HSI_VALUE;
 800156a:	4804      	ldr	r0, [pc, #16]	@ (800157c <HAL_RCC_GetSysClockFreq+0x6c>)
 800156c:	4770      	bx	lr
    sysclockfreq = HSE_VALUE;
 800156e:	4802      	ldr	r0, [pc, #8]	@ (8001578 <HAL_RCC_GetSysClockFreq+0x68>)
 8001570:	4770      	bx	lr
 8001572:	bf00      	nop
 8001574:	40021000 	.word	0x40021000
 8001578:	016e3600 	.word	0x016e3600
 800157c:	00f42400 	.word	0x00f42400

08001580 <HAL_RCC_ClockConfig>:
  if (RCC_ClkInitStruct == NULL)
 8001580:	2800      	cmp	r0, #0
 8001582:	f000 80ee 	beq.w	8001762 <HAL_RCC_ClockConfig+0x1e2>
  if (FLatency > __HAL_FLASH_GET_LATENCY())
 8001586:	4a78      	ldr	r2, [pc, #480]	@ (8001768 <HAL_RCC_ClockConfig+0x1e8>)
{
 8001588:	e92d 43f8 	stmdb	sp!, {r3, r4, r5, r6, r7, r8, r9, lr}
  if (FLatency > __HAL_FLASH_GET_LATENCY())
 800158c:	6813      	ldr	r3, [r2, #0]
 800158e:	f003 030f 	and.w	r3, r3, #15
 8001592:	428b      	cmp	r3, r1
 8001594:	460d      	mov	r5, r1
 8001596:	4604      	mov	r4, r0
 8001598:	d20c      	bcs.n	80015b4 <HAL_RCC_ClockConfig+0x34>
    __HAL_FLASH_SET_LATENCY(FLatency);
 800159a:	6813      	ldr	r3, [r2, #0]
 800159c:	f023 030f 	bic.w	r3, r3, #15
 80015a0:	430b      	orrs	r3, r1
 80015a2:	6013      	str	r3, [r2, #0]
    if (__HAL_FLASH_GET_LATENCY() != FLatency)
 80015a4:	6813      	ldr	r3, [r2, #0]
 80015a6:	f003 030f 	and.w	r3, r3, #15
 80015aa:	428b      	cmp	r3, r1
 80015ac:	d002      	beq.n	80015b4 <HAL_RCC_ClockConfig+0x34>
    return HAL_ERROR;
 80015ae:	2001      	movs	r0, #1
}
 80015b0:	e8bd 83f8 	ldmia.w	sp!, {r3, r4, r5, r6, r7, r8, r9, pc}
  if(((RCC_ClkInitStruct->ClockType) & RCC_CLOCKTYPE_SYSCLK) == RCC_CLOCKTYPE_SYSCLK)
 80015b4:	6823      	ldr	r3, [r4, #0]
 80015b6:	07df      	lsls	r7, r3, #31
 80015b8:	d569      	bpl.n	800168e <HAL_RCC_ClockConfig+0x10e>
    if (RCC_ClkInitStruct->SYSCLKSource == RCC_SYSCLKSOURCE_PLLCLK)
 80015ba:	6867      	ldr	r7, [r4, #4]
 80015bc:	2f03      	cmp	r7, #3
 80015be:	f000 80a0 	beq.w	8001702 <HAL_RCC_ClockConfig+0x182>
        if(READ_BIT(RCC->CR, RCC_CR_HSERDY) == 0U)
 80015c2:	4b6a      	ldr	r3, [pc, #424]	@ (800176c <HAL_RCC_ClockConfig+0x1ec>)
      if (RCC_ClkInitStruct->SYSCLKSource == RCC_SYSCLKSOURCE_HSE)
 80015c4:	2f02      	cmp	r7, #2
        if(READ_BIT(RCC->CR, RCC_CR_HSERDY) == 0U)
 80015c6:	681b      	ldr	r3, [r3, #0]
      if (RCC_ClkInitStruct->SYSCLKSource == RCC_SYSCLKSOURCE_HSE)
 80015c8:	f000 8097 	beq.w	80016fa <HAL_RCC_ClockConfig+0x17a>
        if(READ_BIT(RCC->CR, RCC_CR_HSIRDY) == 0U)
 80015cc:	055b      	lsls	r3, r3, #21
 80015ce:	d5ee      	bpl.n	80015ae <HAL_RCC_ClockConfig+0x2e>
      pllfreq = HAL_RCC_GetSysClockFreq();
 80015d0:	f7ff ff9e 	bl	8001510 <HAL_RCC_GetSysClockFreq>
      if(pllfreq > 80000000U)
 80015d4:	4b66      	ldr	r3, [pc, #408]	@ (8001770 <HAL_RCC_ClockConfig+0x1f0>)
 80015d6:	4298      	cmp	r0, r3
 80015d8:	f240 80c0 	bls.w	800175c <HAL_RCC_ClockConfig+0x1dc>
          MODIFY_REG(RCC->CFGR, RCC_CFGR_HPRE, RCC_SYSCLK_DIV2);
 80015dc:	4a63      	ldr	r2, [pc, #396]	@ (800176c <HAL_RCC_ClockConfig+0x1ec>)
 80015de:	6893      	ldr	r3, [r2, #8]
 80015e0:	f023 03f0 	bic.w	r3, r3, #240	@ 0xf0
 80015e4:	f043 0380 	orr.w	r3, r3, #128	@ 0x80
 80015e8:	6093      	str	r3, [r2, #8]
        hpre = RCC_SYSCLK_DIV2;
 80015ea:	f04f 0980 	mov.w	r9, #128	@ 0x80
    MODIFY_REG(RCC->CFGR, RCC_CFGR_SW, RCC_ClkInitStruct->SYSCLKSource);
 80015ee:	4e5f      	ldr	r6, [pc, #380]	@ (800176c <HAL_RCC_ClockConfig+0x1ec>)
 80015f0:	68b3      	ldr	r3, [r6, #8]
 80015f2:	f023 0303 	bic.w	r3, r3, #3
 80015f6:	433b      	orrs	r3, r7
 80015f8:	60b3      	str	r3, [r6, #8]
    tickstart = HAL_GetTick();
 80015fa:	f7ff faa1 	bl	8000b40 <HAL_GetTick>
      if ((HAL_GetTick() - tickstart) > CLOCKSWITCH_TIMEOUT_VALUE)
 80015fe:	f241 3888 	movw	r8, #5000	@ 0x1388
    tickstart = HAL_GetTick();
 8001602:	4607      	mov	r7, r0
    while (__HAL_RCC_GET_SYSCLK_SOURCE() != (RCC_ClkInitStruct->SYSCLKSource << RCC_CFGR_SWS_Pos))
 8001604:	e004      	b.n	8001610 <HAL_RCC_ClockConfig+0x90>
      if ((HAL_GetTick() - tickstart) > CLOCKSWITCH_TIMEOUT_VALUE)
 8001606:	f7ff fa9b 	bl	8000b40 <HAL_GetTick>
 800160a:	1bc0      	subs	r0, r0, r7
 800160c:	4540      	cmp	r0, r8
 800160e:	d871      	bhi.n	80016f4 <HAL_RCC_ClockConfig+0x174>
    while (__HAL_RCC_GET_SYSCLK_SOURCE() != (RCC_ClkInitStruct->SYSCLKSource << RCC_CFGR_SWS_Pos))
 8001610:	68b3      	ldr	r3, [r6, #8]
 8001612:	6862      	ldr	r2, [r4, #4]
 8001614:	f003 030c 	and.w	r3, r3, #12
 8001618:	ebb3 0f82 	cmp.w	r3, r2, lsl #2
 800161c:	d1f3      	bne.n	8001606 <HAL_RCC_ClockConfig+0x86>
  if (((RCC_ClkInitStruct->ClockType) & RCC_CLOCKTYPE_HCLK) == RCC_CLOCKTYPE_HCLK)
 800161e:	6823      	ldr	r3, [r4, #0]
 8001620:	079f      	lsls	r7, r3, #30
 8001622:	d436      	bmi.n	8001692 <HAL_RCC_ClockConfig+0x112>
    if(hpre == RCC_SYSCLK_DIV2)
 8001624:	f1b9 0f00 	cmp.w	r9, #0
 8001628:	d003      	beq.n	8001632 <HAL_RCC_ClockConfig+0xb2>
      MODIFY_REG(RCC->CFGR, RCC_CFGR_HPRE, RCC_SYSCLK_DIV1);
 800162a:	68b3      	ldr	r3, [r6, #8]
 800162c:	f023 03f0 	bic.w	r3, r3, #240	@ 0xf0
 8001630:	60b3      	str	r3, [r6, #8]
  if (FLatency < __HAL_FLASH_GET_LATENCY())
 8001632:	4e4d      	ldr	r6, [pc, #308]	@ (8001768 <HAL_RCC_ClockConfig+0x1e8>)
 8001634:	6833      	ldr	r3, [r6, #0]
 8001636:	f003 030f 	and.w	r3, r3, #15
 800163a:	42ab      	cmp	r3, r5
 800163c:	d846      	bhi.n	80016cc <HAL_RCC_ClockConfig+0x14c>
  if (((RCC_ClkInitStruct->ClockType) & RCC_CLOCKTYPE_PCLK1) == RCC_CLOCKTYPE_PCLK1)
 800163e:	6823      	ldr	r3, [r4, #0]
 8001640:	075a      	lsls	r2, r3, #29
 8001642:	d506      	bpl.n	8001652 <HAL_RCC_ClockConfig+0xd2>
    MODIFY_REG(RCC->CFGR, RCC_CFGR_PPRE1, RCC_ClkInitStruct->APB1CLKDivider);
 8001644:	4949      	ldr	r1, [pc, #292]	@ (800176c <HAL_RCC_ClockConfig+0x1ec>)
 8001646:	68e0      	ldr	r0, [r4, #12]
 8001648:	688a      	ldr	r2, [r1, #8]
 800164a:	f422 62e0 	bic.w	r2, r2, #1792	@ 0x700
 800164e:	4302      	orrs	r2, r0
 8001650:	608a      	str	r2, [r1, #8]
  if(((RCC_ClkInitStruct->ClockType) & RCC_CLOCKTYPE_PCLK2) == RCC_CLOCKTYPE_PCLK2)
 8001652:	071b      	lsls	r3, r3, #28
 8001654:	d507      	bpl.n	8001666 <HAL_RCC_ClockConfig+0xe6>
    MODIFY_REG(RCC->CFGR, RCC_CFGR_PPRE2, ((RCC_ClkInitStruct->APB2CLKDivider) << 3U));
 8001656:	4a45      	ldr	r2, [pc, #276]	@ (800176c <HAL_RCC_ClockConfig+0x1ec>)
 8001658:	6921      	ldr	r1, [r4, #16]
 800165a:	6893      	ldr	r3, [r2, #8]
 800165c:	f423 5360 	bic.w	r3, r3, #14336	@ 0x3800
 8001660:	ea43 03c1 	orr.w	r3, r3, r1, lsl #3
 8001664:	6093      	str	r3, [r2, #8]
  SystemCoreClock = HAL_RCC_GetSysClockFreq() >> (AHBPrescTable[READ_BIT(RCC->CFGR, RCC_CFGR_HPRE) >> RCC_CFGR_HPRE_Pos] & 0x1FU);
 8001666:	f7ff ff53 	bl	8001510 <HAL_RCC_GetSysClockFreq>
 800166a:	4a40      	ldr	r2, [pc, #256]	@ (800176c <HAL_RCC_ClockConfig+0x1ec>)
 800166c:	4c41      	ldr	r4, [pc, #260]	@ (8001774 <HAL_RCC_ClockConfig+0x1f4>)
 800166e:	6892      	ldr	r2, [r2, #8]
 8001670:	4941      	ldr	r1, [pc, #260]	@ (8001778 <HAL_RCC_ClockConfig+0x1f8>)
 8001672:	f3c2 1203 	ubfx	r2, r2, #4, #4
 8001676:	4603      	mov	r3, r0
 8001678:	5ca2      	ldrb	r2, [r4, r2]
  return HAL_InitTick(uwTickPrio);
 800167a:	4840      	ldr	r0, [pc, #256]	@ (800177c <HAL_RCC_ClockConfig+0x1fc>)
  SystemCoreClock = HAL_RCC_GetSysClockFreq() >> (AHBPrescTable[READ_BIT(RCC->CFGR, RCC_CFGR_HPRE) >> RCC_CFGR_HPRE_Pos] & 0x1FU);
 800167c:	f002 021f 	and.w	r2, r2, #31
 8001680:	40d3      	lsrs	r3, r2
 8001682:	600b      	str	r3, [r1, #0]
  return HAL_InitTick(uwTickPrio);
 8001684:	6800      	ldr	r0, [r0, #0]
}
 8001686:	e8bd 43f8 	ldmia.w	sp!, {r3, r4, r5, r6, r7, r8, r9, lr}
  return HAL_InitTick(uwTickPrio);
 800168a:	f7ff ba17 	b.w	8000abc <HAL_InitTick>
  if (((RCC_ClkInitStruct->ClockType) & RCC_CLOCKTYPE_HCLK) == RCC_CLOCKTYPE_HCLK)
 800168e:	079e      	lsls	r6, r3, #30
 8001690:	d5cf      	bpl.n	8001632 <HAL_RCC_ClockConfig+0xb2>
    if (((RCC_ClkInitStruct->ClockType) & RCC_CLOCKTYPE_PCLK1) == RCC_CLOCKTYPE_PCLK1)
 8001692:	0758      	lsls	r0, r3, #29
 8001694:	d504      	bpl.n	80016a0 <HAL_RCC_ClockConfig+0x120>
      MODIFY_REG(RCC->CFGR, RCC_CFGR_PPRE1, RCC_HCLK_DIV16);
 8001696:	4935      	ldr	r1, [pc, #212]	@ (800176c <HAL_RCC_ClockConfig+0x1ec>)
 8001698:	688a      	ldr	r2, [r1, #8]
 800169a:	f442 62e0 	orr.w	r2, r2, #1792	@ 0x700
 800169e:	608a      	str	r2, [r1, #8]
    if (((RCC_ClkInitStruct->ClockType) & RCC_CLOCKTYPE_PCLK2) == RCC_CLOCKTYPE_PCLK2)
 80016a0:	0719      	lsls	r1, r3, #28
 80016a2:	d506      	bpl.n	80016b2 <HAL_RCC_ClockConfig+0x132>
      MODIFY_REG(RCC->CFGR, RCC_CFGR_PPRE2, RCC_HCLK_DIV16);
 80016a4:	4a31      	ldr	r2, [pc, #196]	@ (800176c <HAL_RCC_ClockConfig+0x1ec>)
 80016a6:	6893      	ldr	r3, [r2, #8]
 80016a8:	f423 537c 	bic.w	r3, r3, #16128	@ 0x3f00
 80016ac:	f443 63e0 	orr.w	r3, r3, #1792	@ 0x700
 80016b0:	6093      	str	r3, [r2, #8]
    MODIFY_REG(RCC->CFGR, RCC_CFGR_HPRE, RCC_ClkInitStruct->AHBCLKDivider);
 80016b2:	4a2e      	ldr	r2, [pc, #184]	@ (800176c <HAL_RCC_ClockConfig+0x1ec>)
 80016b4:	68a1      	ldr	r1, [r4, #8]
 80016b6:	6893      	ldr	r3, [r2, #8]
  if (FLatency < __HAL_FLASH_GET_LATENCY())
 80016b8:	4e2b      	ldr	r6, [pc, #172]	@ (8001768 <HAL_RCC_ClockConfig+0x1e8>)
    MODIFY_REG(RCC->CFGR, RCC_CFGR_HPRE, RCC_ClkInitStruct->AHBCLKDivider);
 80016ba:	f023 03f0 	bic.w	r3, r3, #240	@ 0xf0
 80016be:	430b      	orrs	r3, r1
 80016c0:	6093      	str	r3, [r2, #8]
  if (FLatency < __HAL_FLASH_GET_LATENCY())
 80016c2:	6833      	ldr	r3, [r6, #0]
 80016c4:	f003 030f 	and.w	r3, r3, #15
 80016c8:	42ab      	cmp	r3, r5
 80016ca:	d9b8      	bls.n	800163e <HAL_RCC_ClockConfig+0xbe>
    __HAL_FLASH_SET_LATENCY(FLatency);
 80016cc:	6833      	ldr	r3, [r6, #0]
 80016ce:	f023 030f 	bic.w	r3, r3, #15
 80016d2:	432b      	orrs	r3, r5
 80016d4:	6033      	str	r3, [r6, #0]
    tickstart = HAL_GetTick();
 80016d6:	f7ff fa33 	bl	8000b40 <HAL_GetTick>
      if ((HAL_GetTick() - tickstart) > CLOCKSWITCH_TIMEOUT_VALUE)
 80016da:	f241 3888 	movw	r8, #5000	@ 0x1388
    tickstart = HAL_GetTick();
 80016de:	4607      	mov	r7, r0
    while (__HAL_FLASH_GET_LATENCY() != FLatency)
 80016e0:	6833      	ldr	r3, [r6, #0]
 80016e2:	f003 030f 	and.w	r3, r3, #15
 80016e6:	42ab      	cmp	r3, r5
 80016e8:	d0a9      	beq.n	800163e <HAL_RCC_ClockConfig+0xbe>
      if ((HAL_GetTick() - tickstart) > CLOCKSWITCH_TIMEOUT_VALUE)
 80016ea:	f7ff fa29 	bl	8000b40 <HAL_GetTick>
 80016ee:	1bc0      	subs	r0, r0, r7
 80016f0:	4540      	cmp	r0, r8
 80016f2:	d9f5      	bls.n	80016e0 <HAL_RCC_ClockConfig+0x160>
        return HAL_TIMEOUT;
 80016f4:	2003      	movs	r0, #3
}
 80016f6:	e8bd 83f8 	ldmia.w	sp!, {r3, r4, r5, r6, r7, r8, r9, pc}
        if(READ_BIT(RCC->CR, RCC_CR_HSERDY) == 0U)
 80016fa:	039a      	lsls	r2, r3, #14
 80016fc:	f53f af68 	bmi.w	80015d0 <HAL_RCC_ClockConfig+0x50>
 8001700:	e755      	b.n	80015ae <HAL_RCC_ClockConfig+0x2e>
      if (READ_BIT(RCC->CR, RCC_CR_PLLRDY) == 0U)
 8001702:	4a1a      	ldr	r2, [pc, #104]	@ (800176c <HAL_RCC_ClockConfig+0x1ec>)
 8001704:	6811      	ldr	r1, [r2, #0]
 8001706:	0188      	lsls	r0, r1, #6
 8001708:	f57f af51 	bpl.w	80015ae <HAL_RCC_ClockConfig+0x2e>
  uint32_t sysclockfreq;

  /* PLL_VCO = (HSE_VALUE or HSI_VALUE/ PLLM) * PLLN
     SYSCLK = PLL_VCO / PLLR
   */
  pllsource = READ_BIT(RCC->PLLCFGR, RCC_PLLCFGR_PLLSRC);
 800170c:	68d0      	ldr	r0, [r2, #12]
  pllm = (READ_BIT(RCC->PLLCFGR, RCC_PLLCFGR_PLLM) >> RCC_PLLCFGR_PLLM_Pos) + 1U ;
 800170e:	68d1      	ldr	r1, [r2, #12]
    pllvco = (HSE_VALUE / pllm) * (READ_BIT(RCC->PLLCFGR, RCC_PLLCFGR_PLLN) >> RCC_PLLCFGR_PLLN_Pos);
    break;

  case RCC_PLLSOURCE_HSI:  /* HSI used as PLL clock source */
  default:
    pllvco = (HSI_VALUE / pllm) * (READ_BIT(RCC->PLLCFGR, RCC_PLLCFGR_PLLN) >> RCC_PLLCFGR_PLLN_Pos);
 8001710:	68d2      	ldr	r2, [r2, #12]
      if(pllfreq > 80000000U)
 8001712:	4e17      	ldr	r6, [pc, #92]	@ (8001770 <HAL_RCC_ClockConfig+0x1f0>)
  pllsource = READ_BIT(RCC->PLLCFGR, RCC_PLLCFGR_PLLSRC);
 8001714:	f000 0003 	and.w	r0, r0, #3
  switch (pllsource)
 8001718:	2803      	cmp	r0, #3
  pllm = (READ_BIT(RCC->PLLCFGR, RCC_PLLCFGR_PLLM) >> RCC_PLLCFGR_PLLM_Pos) + 1U ;
 800171a:	f3c1 1103 	ubfx	r1, r1, #4, #4
    pllvco = (HSE_VALUE / pllm) * (READ_BIT(RCC->PLLCFGR, RCC_PLLCFGR_PLLN) >> RCC_PLLCFGR_PLLN_Pos);
 800171e:	bf0c      	ite	eq
 8001720:	4817      	ldreq	r0, [pc, #92]	@ (8001780 <HAL_RCC_ClockConfig+0x200>)
    pllvco = (HSI_VALUE / pllm) * (READ_BIT(RCC->PLLCFGR, RCC_PLLCFGR_PLLN) >> RCC_PLLCFGR_PLLN_Pos);
 8001722:	4818      	ldrne	r0, [pc, #96]	@ (8001784 <HAL_RCC_ClockConfig+0x204>)
  pllm = (READ_BIT(RCC->PLLCFGR, RCC_PLLCFGR_PLLM) >> RCC_PLLCFGR_PLLM_Pos) + 1U ;
 8001724:	3101      	adds	r1, #1
    pllvco = (HSI_VALUE / pllm) * (READ_BIT(RCC->PLLCFGR, RCC_PLLCFGR_PLLN) >> RCC_PLLCFGR_PLLN_Pos);
 8001726:	fbb0 f1f1 	udiv	r1, r0, r1
    break;
  }

  pllr = ((READ_BIT(RCC->PLLCFGR, RCC_PLLCFGR_PLLR) >> RCC_PLLCFGR_PLLR_Pos) + 1U ) * 2U;
 800172a:	4810      	ldr	r0, [pc, #64]	@ (800176c <HAL_RCC_ClockConfig+0x1ec>)
    pllvco = (HSI_VALUE / pllm) * (READ_BIT(RCC->PLLCFGR, RCC_PLLCFGR_PLLN) >> RCC_PLLCFGR_PLLN_Pos);
 800172c:	f3c2 2206 	ubfx	r2, r2, #8, #7
 8001730:	fb01 f202 	mul.w	r2, r1, r2
  pllr = ((READ_BIT(RCC->PLLCFGR, RCC_PLLCFGR_PLLR) >> RCC_PLLCFGR_PLLR_Pos) + 1U ) * 2U;
 8001734:	68c1      	ldr	r1, [r0, #12]
 8001736:	f3c1 6141 	ubfx	r1, r1, #25, #2
 800173a:	3101      	adds	r1, #1
 800173c:	0049      	lsls	r1, r1, #1
  sysclockfreq = pllvco/pllr;
 800173e:	fbb2 f2f1 	udiv	r2, r2, r1
      if(pllfreq > 80000000U)
 8001742:	42b2      	cmp	r2, r6
 8001744:	d90a      	bls.n	800175c <HAL_RCC_ClockConfig+0x1dc>
        if (((READ_BIT(RCC->CFGR, RCC_CFGR_HPRE) == RCC_SYSCLK_DIV1)) ||
 8001746:	6882      	ldr	r2, [r0, #8]
 8001748:	f012 0ff0 	tst.w	r2, #240	@ 0xf0
 800174c:	f43f af46 	beq.w	80015dc <HAL_RCC_ClockConfig+0x5c>
 8001750:	0799      	lsls	r1, r3, #30
 8001752:	d503      	bpl.n	800175c <HAL_RCC_ClockConfig+0x1dc>
            (((((RCC_ClkInitStruct->ClockType) & RCC_CLOCKTYPE_HCLK) == RCC_CLOCKTYPE_HCLK) &&
 8001754:	68a3      	ldr	r3, [r4, #8]
 8001756:	2b00      	cmp	r3, #0
 8001758:	f43f af40 	beq.w	80015dc <HAL_RCC_ClockConfig+0x5c>
  uint32_t hpre = RCC_SYSCLK_DIV1;
 800175c:	f04f 0900 	mov.w	r9, #0
 8001760:	e745      	b.n	80015ee <HAL_RCC_ClockConfig+0x6e>
    return HAL_ERROR;
 8001762:	2001      	movs	r0, #1
}
 8001764:	4770      	bx	lr
 8001766:	bf00      	nop
 8001768:	40022000 	.word	0x40022000
 800176c:	40021000 	.word	0x40021000
 8001770:	04c4b400 	.word	0x04c4b400
 8001774:	08002cc0 	.word	0x08002cc0
 8001778:	20000004 	.word	0x20000004
 800177c:	2000000c 	.word	0x2000000c
 8001780:	016e3600 	.word	0x016e3600
 8001784:	00f42400 	.word	0x00f42400

08001788 <HAL_RCC_GetPCLK1Freq>:
  return (HAL_RCC_GetHCLKFreq() >> (APBPrescTable[READ_BIT(RCC->CFGR, RCC_CFGR_PPRE1) >> RCC_CFGR_PPRE1_Pos] & 0x1FU));
 8001788:	4b05      	ldr	r3, [pc, #20]	@ (80017a0 <HAL_RCC_GetPCLK1Freq+0x18>)
 800178a:	4a06      	ldr	r2, [pc, #24]	@ (80017a4 <HAL_RCC_GetPCLK1Freq+0x1c>)
 800178c:	689b      	ldr	r3, [r3, #8]
  return SystemCoreClock;
 800178e:	4906      	ldr	r1, [pc, #24]	@ (80017a8 <HAL_RCC_GetPCLK1Freq+0x20>)
  return (HAL_RCC_GetHCLKFreq() >> (APBPrescTable[READ_BIT(RCC->CFGR, RCC_CFGR_PPRE1) >> RCC_CFGR_PPRE1_Pos] & 0x1FU));
 8001790:	f3c3 2302 	ubfx	r3, r3, #8, #3
 8001794:	6808      	ldr	r0, [r1, #0]
 8001796:	5cd3      	ldrb	r3, [r2, r3]
 8001798:	f003 031f 	and.w	r3, r3, #31
}
 800179c:	40d8      	lsrs	r0, r3
 800179e:	4770      	bx	lr
 80017a0:	40021000 	.word	0x40021000
 80017a4:	08002cb8 	.word	0x08002cb8
 80017a8:	20000004 	.word	0x20000004

080017ac <HAL_RCC_GetPCLK2Freq>:
  return (HAL_RCC_GetHCLKFreq()>> (APBPrescTable[READ_BIT(RCC->CFGR, RCC_CFGR_PPRE2) >> RCC_CFGR_PPRE2_Pos] & 0x1FU));
 80017ac:	4b05      	ldr	r3, [pc, #20]	@ (80017c4 <HAL_RCC_GetPCLK2Freq+0x18>)
 80017ae:	4a06      	ldr	r2, [pc, #24]	@ (80017c8 <HAL_RCC_GetPCLK2Freq+0x1c>)
 80017b0:	689b      	ldr	r3, [r3, #8]
  return SystemCoreClock;
 80017b2:	4906      	ldr	r1, [pc, #24]	@ (80017cc <HAL_RCC_GetPCLK2Freq+0x20>)
  return (HAL_RCC_GetHCLKFreq()>> (APBPrescTable[READ_BIT(RCC->CFGR, RCC_CFGR_PPRE2) >> RCC_CFGR_PPRE2_Pos] & 0x1FU));
 80017b4:	f3c3 23c2 	ubfx	r3, r3, #11, #3
 80017b8:	6808      	ldr	r0, [r1, #0]
 80017ba:	5cd3      	ldrb	r3, [r2, r3]
 80017bc:	f003 031f 	and.w	r3, r3, #31
}
 80017c0:	40d8      	lsrs	r0, r3
 80017c2:	4770      	bx	lr
 80017c4:	40021000 	.word	0x40021000
 80017c8:	08002cb8 	.word	0x08002cb8
 80017cc:	20000004 	.word	0x20000004

080017d0 <HAL_RCCEx_PeriphCLKConfig>:
  *         the RTC clock source: in this case the access to Backup domain is enabled.
  *
  * @retval HAL status
  */
HAL_StatusTypeDef HAL_RCCEx_PeriphCLKConfig(RCC_PeriphCLKInitTypeDef  *PeriphClkInit)
{
 80017d0:	e92d 41f0 	stmdb	sp!, {r4, r5, r6, r7, r8, lr}

  /* Check the parameters */
  assert_param(IS_RCC_PERIPHCLOCK(PeriphClkInit->PeriphClockSelection));

  /*-------------------------- RTC clock source configuration ----------------------*/
  if((PeriphClkInit->PeriphClockSelection & RCC_PERIPHCLK_RTC) == RCC_PERIPHCLK_RTC)
 80017d4:	6803      	ldr	r3, [r0, #0]
{
 80017d6:	4604      	mov	r4, r0
  if((PeriphClkInit->PeriphClockSelection & RCC_PERIPHCLK_RTC) == RCC_PERIPHCLK_RTC)
 80017d8:	f413 2000 	ands.w	r0, r3, #524288	@ 0x80000
{
 80017dc:	b082      	sub	sp, #8
  if((PeriphClkInit->PeriphClockSelection & RCC_PERIPHCLK_RTC) == RCC_PERIPHCLK_RTC)
 80017de:	d052      	beq.n	8001886 <HAL_RCCEx_PeriphCLKConfig+0xb6>
    
    /* Check for RTC Parameters used to output RTCCLK */
    assert_param(IS_RCC_RTCCLKSOURCE(PeriphClkInit->RTCClockSelection));

    /* Enable Power Clock */
    if(__HAL_RCC_PWR_IS_CLK_DISABLED())
 80017e0:	4bac      	ldr	r3, [pc, #688]	@ (8001a94 <HAL_RCCEx_PeriphCLKConfig+0x2c4>)
 80017e2:	6d9a      	ldr	r2, [r3, #88]	@ 0x58
 80017e4:	00d5      	lsls	r5, r2, #3
 80017e6:	f140 813a 	bpl.w	8001a5e <HAL_RCCEx_PeriphCLKConfig+0x28e>
    FlagStatus       pwrclkchanged = RESET;
 80017ea:	2700      	movs	r7, #0
      __HAL_RCC_PWR_CLK_ENABLE();
      pwrclkchanged = SET;
    }
      
    /* Enable write access to Backup domain */
    SET_BIT(PWR->CR1, PWR_CR1_DBP);
 80017ec:	4daa      	ldr	r5, [pc, #680]	@ (8001a98 <HAL_RCCEx_PeriphCLKConfig+0x2c8>)
 80017ee:	682b      	ldr	r3, [r5, #0]
 80017f0:	f443 7380 	orr.w	r3, r3, #256	@ 0x100
 80017f4:	602b      	str	r3, [r5, #0]

    /* Wait for Backup domain Write protection disable */
    tickstart = HAL_GetTick();
 80017f6:	f7ff f9a3 	bl	8000b40 <HAL_GetTick>
 80017fa:	4606      	mov	r6, r0

    while((PWR->CR1 & PWR_CR1_DBP) == 0U)
 80017fc:	e005      	b.n	800180a <HAL_RCCEx_PeriphCLKConfig+0x3a>
    {
      if((HAL_GetTick() - tickstart) > RCC_DBP_TIMEOUT_VALUE)
 80017fe:	f7ff f99f 	bl	8000b40 <HAL_GetTick>
 8001802:	1b83      	subs	r3, r0, r6
 8001804:	2b02      	cmp	r3, #2
 8001806:	f200 8135 	bhi.w	8001a74 <HAL_RCCEx_PeriphCLKConfig+0x2a4>
    while((PWR->CR1 & PWR_CR1_DBP) == 0U)
 800180a:	682b      	ldr	r3, [r5, #0]
 800180c:	05d8      	lsls	r0, r3, #23
 800180e:	d5f6      	bpl.n	80017fe <HAL_RCCEx_PeriphCLKConfig+0x2e>
    }

    if(ret == HAL_OK)
    { 
      /* Reset the Backup domain only if the RTC Clock source selection is modified from default */
      tmpregister = READ_BIT(RCC->BDCR, RCC_BDCR_RTCSEL);
 8001810:	4da0      	ldr	r5, [pc, #640]	@ (8001a94 <HAL_RCCEx_PeriphCLKConfig+0x2c4>)
      
      if((tmpregister != RCC_RTCCLKSOURCE_NONE) && (tmpregister != PeriphClkInit->RTCClockSelection))
 8001812:	6d22      	ldr	r2, [r4, #80]	@ 0x50
      tmpregister = READ_BIT(RCC->BDCR, RCC_BDCR_RTCSEL);
 8001814:	f8d5 3090 	ldr.w	r3, [r5, #144]	@ 0x90
      if((tmpregister != RCC_RTCCLKSOURCE_NONE) && (tmpregister != PeriphClkInit->RTCClockSelection))
 8001818:	f413 7340 	ands.w	r3, r3, #768	@ 0x300
 800181c:	d026      	beq.n	800186c <HAL_RCCEx_PeriphCLKConfig+0x9c>
 800181e:	4293      	cmp	r3, r2
 8001820:	d024      	beq.n	800186c <HAL_RCCEx_PeriphCLKConfig+0x9c>
      {
        /* Store the content of BDCR register before the reset of Backup Domain */
        tmpregister = READ_BIT(RCC->BDCR, ~(RCC_BDCR_RTCSEL));
 8001822:	f8d5 1090 	ldr.w	r1, [r5, #144]	@ 0x90
        /* RTC Clock selection can be changed only if the Backup Domain is reset */
        __HAL_RCC_BACKUPRESET_FORCE();
 8001826:	f8d5 3090 	ldr.w	r3, [r5, #144]	@ 0x90
 800182a:	f443 3380 	orr.w	r3, r3, #65536	@ 0x10000
 800182e:	f8c5 3090 	str.w	r3, [r5, #144]	@ 0x90
        __HAL_RCC_BACKUPRESET_RELEASE();
 8001832:	f8d5 3090 	ldr.w	r3, [r5, #144]	@ 0x90
 8001836:	f423 3380 	bic.w	r3, r3, #65536	@ 0x10000
 800183a:	f8c5 3090 	str.w	r3, [r5, #144]	@ 0x90
        tmpregister = READ_BIT(RCC->BDCR, ~(RCC_BDCR_RTCSEL));
 800183e:	f421 7340 	bic.w	r3, r1, #768	@ 0x300
        /* Restore the Content of BDCR register */
        RCC->BDCR = tmpregister;
      }

      /* Wait for LSE reactivation if LSE was enable prior to Backup Domain reset */
      if (HAL_IS_BIT_SET(tmpregister, RCC_BDCR_LSEON))
 8001842:	07c9      	lsls	r1, r1, #31
        RCC->BDCR = tmpregister;
 8001844:	f8c5 3090 	str.w	r3, [r5, #144]	@ 0x90
      if (HAL_IS_BIT_SET(tmpregister, RCC_BDCR_LSEON))
 8001848:	d510      	bpl.n	800186c <HAL_RCCEx_PeriphCLKConfig+0x9c>
      {
        /* Get Start Tick*/
        tickstart = HAL_GetTick();
 800184a:	f7ff f979 	bl	8000b40 <HAL_GetTick>

        /* Wait till LSE is ready */
        while(READ_BIT(RCC->BDCR, RCC_BDCR_LSERDY) == 0U)
        {
          if((HAL_GetTick() - tickstart) > RCC_LSE_TIMEOUT_VALUE)
 800184e:	f241 3888 	movw	r8, #5000	@ 0x1388
        tickstart = HAL_GetTick();
 8001852:	4606      	mov	r6, r0
        while(READ_BIT(RCC->BDCR, RCC_BDCR_LSERDY) == 0U)
 8001854:	e005      	b.n	8001862 <HAL_RCCEx_PeriphCLKConfig+0x92>
          if((HAL_GetTick() - tickstart) > RCC_LSE_TIMEOUT_VALUE)
 8001856:	f7ff f973 	bl	8000b40 <HAL_GetTick>
 800185a:	1b80      	subs	r0, r0, r6
 800185c:	4540      	cmp	r0, r8
 800185e:	f200 8109 	bhi.w	8001a74 <HAL_RCCEx_PeriphCLKConfig+0x2a4>
        while(READ_BIT(RCC->BDCR, RCC_BDCR_LSERDY) == 0U)
 8001862:	f8d5 3090 	ldr.w	r3, [r5, #144]	@ 0x90
 8001866:	079b      	lsls	r3, r3, #30
 8001868:	d5f5      	bpl.n	8001856 <HAL_RCCEx_PeriphCLKConfig+0x86>
      }
      
      if(ret == HAL_OK)
      {
        /* Apply new RTC clock source selection */
        __HAL_RCC_RTC_CONFIG(PeriphClkInit->RTCClockSelection);
 800186a:	6d22      	ldr	r2, [r4, #80]	@ 0x50
 800186c:	4989      	ldr	r1, [pc, #548]	@ (8001a94 <HAL_RCCEx_PeriphCLKConfig+0x2c4>)
 800186e:	f8d1 3090 	ldr.w	r3, [r1, #144]	@ 0x90
 8001872:	f423 7340 	bic.w	r3, r3, #768	@ 0x300
 8001876:	4313      	orrs	r3, r2
 8001878:	f8c1 3090 	str.w	r3, [r1, #144]	@ 0x90
      __HAL_RCC_PWR_CLK_DISABLE();
    }
  }

  /*-------------------------- USART1 clock source configuration -------------------*/
  if(((PeriphClkInit->PeriphClockSelection) & RCC_PERIPHCLK_USART1) == RCC_PERIPHCLK_USART1)
 800187c:	6823      	ldr	r3, [r4, #0]
  HAL_StatusTypeDef status = HAL_OK;   /* Final status */
 800187e:	2000      	movs	r0, #0
    if(pwrclkchanged == SET)
 8001880:	2f00      	cmp	r7, #0
 8001882:	f040 80fc 	bne.w	8001a7e <HAL_RCCEx_PeriphCLKConfig+0x2ae>
  if(((PeriphClkInit->PeriphClockSelection) & RCC_PERIPHCLK_USART1) == RCC_PERIPHCLK_USART1)
 8001886:	07dd      	lsls	r5, r3, #31
 8001888:	d508      	bpl.n	800189c <HAL_RCCEx_PeriphCLKConfig+0xcc>
  {
    /* Check the parameters */
    assert_param(IS_RCC_USART1CLKSOURCE(PeriphClkInit->Usart1ClockSelection));

    /* Configure the USART1 clock source */
    __HAL_RCC_USART1_CONFIG(PeriphClkInit->Usart1ClockSelection);
 800188a:	4982      	ldr	r1, [pc, #520]	@ (8001a94 <HAL_RCCEx_PeriphCLKConfig+0x2c4>)
 800188c:	6865      	ldr	r5, [r4, #4]
 800188e:	f8d1 2088 	ldr.w	r2, [r1, #136]	@ 0x88
 8001892:	f022 0203 	bic.w	r2, r2, #3
 8001896:	432a      	orrs	r2, r5
 8001898:	f8c1 2088 	str.w	r2, [r1, #136]	@ 0x88
  }

  /*-------------------------- USART2 clock source configuration -------------------*/
  if(((PeriphClkInit->PeriphClockSelection) & RCC_PERIPHCLK_USART2) == RCC_PERIPHCLK_USART2)
 800189c:	0799      	lsls	r1, r3, #30
 800189e:	d508      	bpl.n	80018b2 <HAL_RCCEx_PeriphCLKConfig+0xe2>
  {
    /* Check the parameters */
    assert_param(IS_RCC_USART2CLKSOURCE(PeriphClkInit->Usart2ClockSelection));

    /* Configure the USART2 clock source */
    __HAL_RCC_USART2_CONFIG(PeriphClkInit->Usart2ClockSelection);
 80018a0:	497c      	ldr	r1, [pc, #496]	@ (8001a94 <HAL_RCCEx_PeriphCLKConfig+0x2c4>)
 80018a2:	68a5      	ldr	r5, [r4, #8]
 80018a4:	f8d1 2088 	ldr.w	r2, [r1, #136]	@ 0x88
 80018a8:	f022 020c 	bic.w	r2, r2, #12
 80018ac:	432a      	orrs	r2, r5
 80018ae:	f8c1 2088 	str.w	r2, [r1, #136]	@ 0x88
  }

#if defined(USART3)

  /*-------------------------- USART3 clock source configuration -------------------*/
  if(((PeriphClkInit->PeriphClockSelection) & RCC_PERIPHCLK_USART3) == RCC_PERIPHCLK_USART3)
 80018b2:	075a      	lsls	r2, r3, #29
 80018b4:	d508      	bpl.n	80018c8 <HAL_RCCEx_PeriphCLKConfig+0xf8>
  {
    /* Check the parameters */
    assert_param(IS_RCC_USART3CLKSOURCE(PeriphClkInit->Usart3ClockSelection));

    /* Configure the USART3 clock source */
    __HAL_RCC_USART3_CONFIG(PeriphClkInit->Usart3ClockSelection);
 80018b6:	4977      	ldr	r1, [pc, #476]	@ (8001a94 <HAL_RCCEx_PeriphCLKConfig+0x2c4>)
 80018b8:	68e5      	ldr	r5, [r4, #12]
 80018ba:	f8d1 2088 	ldr.w	r2, [r1, #136]	@ 0x88
 80018be:	f022 0230 	bic.w	r2, r2, #48	@ 0x30
 80018c2:	432a      	orrs	r2, r5
 80018c4:	f8c1 2088 	str.w	r2, [r1, #136]	@ 0x88

#endif /* USART3 */

#if defined(UART4)
  /*-------------------------- UART4 clock source configuration --------------------*/
  if(((PeriphClkInit->PeriphClockSelection) & RCC_PERIPHCLK_UART4) == RCC_PERIPHCLK_UART4)
 80018c8:	071f      	lsls	r7, r3, #28
 80018ca:	d508      	bpl.n	80018de <HAL_RCCEx_PeriphCLKConfig+0x10e>
  {
    /* Check the parameters */
    assert_param(IS_RCC_UART4CLKSOURCE(PeriphClkInit->Uart4ClockSelection));

    /* Configure the UART4 clock source */
    __HAL_RCC_UART4_CONFIG(PeriphClkInit->Uart4ClockSelection);
 80018cc:	4971      	ldr	r1, [pc, #452]	@ (8001a94 <HAL_RCCEx_PeriphCLKConfig+0x2c4>)
 80018ce:	6925      	ldr	r5, [r4, #16]
 80018d0:	f8d1 2088 	ldr.w	r2, [r1, #136]	@ 0x88
 80018d4:	f022 02c0 	bic.w	r2, r2, #192	@ 0xc0
 80018d8:	432a      	orrs	r2, r5
 80018da:	f8c1 2088 	str.w	r2, [r1, #136]	@ 0x88
#endif /* UART4 */

#if defined(UART5)

  /*-------------------------- UART5 clock source configuration --------------------*/
  if(((PeriphClkInit->PeriphClockSelection) & RCC_PERIPHCLK_UART5) == RCC_PERIPHCLK_UART5)
 80018de:	06de      	lsls	r6, r3, #27
 80018e0:	d508      	bpl.n	80018f4 <HAL_RCCEx_PeriphCLKConfig+0x124>
  {
    /* Check the parameters */
    assert_param(IS_RCC_UART5CLKSOURCE(PeriphClkInit->Uart5ClockSelection));

    /* Configure the UART5 clock source */
    __HAL_RCC_UART5_CONFIG(PeriphClkInit->Uart5ClockSelection);
 80018e2:	496c      	ldr	r1, [pc, #432]	@ (8001a94 <HAL_RCCEx_PeriphCLKConfig+0x2c4>)
 80018e4:	6965      	ldr	r5, [r4, #20]
 80018e6:	f8d1 2088 	ldr.w	r2, [r1, #136]	@ 0x88
 80018ea:	f422 7240 	bic.w	r2, r2, #768	@ 0x300
 80018ee:	432a      	orrs	r2, r5
 80018f0:	f8c1 2088 	str.w	r2, [r1, #136]	@ 0x88
  }

#endif /* UART5 */

  /*-------------------------- LPUART1 clock source configuration ------------------*/
  if(((PeriphClkInit->PeriphClockSelection) & RCC_PERIPHCLK_LPUART1) == RCC_PERIPHCLK_LPUART1)
 80018f4:	069d      	lsls	r5, r3, #26
 80018f6:	d508      	bpl.n	800190a <HAL_RCCEx_PeriphCLKConfig+0x13a>
  {
    /* Check the parameters */
    assert_param(IS_RCC_LPUART1CLKSOURCE(PeriphClkInit->Lpuart1ClockSelection));

    /* Configure the LPUAR1 clock source */
    __HAL_RCC_LPUART1_CONFIG(PeriphClkInit->Lpuart1ClockSelection);
 80018f8:	4966      	ldr	r1, [pc, #408]	@ (8001a94 <HAL_RCCEx_PeriphCLKConfig+0x2c4>)
 80018fa:	69a5      	ldr	r5, [r4, #24]
 80018fc:	f8d1 2088 	ldr.w	r2, [r1, #136]	@ 0x88
 8001900:	f422 6240 	bic.w	r2, r2, #3072	@ 0xc00
 8001904:	432a      	orrs	r2, r5
 8001906:	f8c1 2088 	str.w	r2, [r1, #136]	@ 0x88
  }

  /*-------------------------- I2C1 clock source configuration ---------------------*/
  if(((PeriphClkInit->PeriphClockSelection) & RCC_PERIPHCLK_I2C1) == RCC_PERIPHCLK_I2C1)
 800190a:	0659      	lsls	r1, r3, #25
 800190c:	d508      	bpl.n	8001920 <HAL_RCCEx_PeriphCLKConfig+0x150>
  {
    /* Check the parameters */
    assert_param(IS_RCC_I2C1CLKSOURCE(PeriphClkInit->I2c1ClockSelection));

    /* Configure the I2C1 clock source */
    __HAL_RCC_I2C1_CONFIG(PeriphClkInit->I2c1ClockSelection);
 800190e:	4961      	ldr	r1, [pc, #388]	@ (8001a94 <HAL_RCCEx_PeriphCLKConfig+0x2c4>)
 8001910:	69e5      	ldr	r5, [r4, #28]
 8001912:	f8d1 2088 	ldr.w	r2, [r1, #136]	@ 0x88
 8001916:	f422 5240 	bic.w	r2, r2, #12288	@ 0x3000
 800191a:	432a      	orrs	r2, r5
 800191c:	f8c1 2088 	str.w	r2, [r1, #136]	@ 0x88
  }

  /*-------------------------- I2C2 clock source configuration ---------------------*/
  if(((PeriphClkInit->PeriphClockSelection) & RCC_PERIPHCLK_I2C2) == RCC_PERIPHCLK_I2C2)
 8001920:	061a      	lsls	r2, r3, #24
 8001922:	d508      	bpl.n	8001936 <HAL_RCCEx_PeriphCLKConfig+0x166>
  {
    /* Check the parameters */
    assert_param(IS_RCC_I2C2CLKSOURCE(PeriphClkInit->I2c2ClockSelection));

    /* Configure the I2C2 clock source */
    __HAL_RCC_I2C2_CONFIG(PeriphClkInit->I2c2ClockSelection);
 8001924:	495b      	ldr	r1, [pc, #364]	@ (8001a94 <HAL_RCCEx_PeriphCLKConfig+0x2c4>)
 8001926:	6a25      	ldr	r5, [r4, #32]
 8001928:	f8d1 2088 	ldr.w	r2, [r1, #136]	@ 0x88
 800192c:	f422 4240 	bic.w	r2, r2, #49152	@ 0xc000
 8001930:	432a      	orrs	r2, r5
 8001932:	f8c1 2088 	str.w	r2, [r1, #136]	@ 0x88
  }
#if defined(I2C3)

  /*-------------------------- I2C3 clock source configuration ---------------------*/
  if(((PeriphClkInit->PeriphClockSelection) & RCC_PERIPHCLK_I2C3) == RCC_PERIPHCLK_I2C3)
 8001936:	05df      	lsls	r7, r3, #23
 8001938:	d508      	bpl.n	800194c <HAL_RCCEx_PeriphCLKConfig+0x17c>
  {
    /* Check the parameters */
    assert_param(IS_RCC_I2C3CLKSOURCE(PeriphClkInit->I2c3ClockSelection));

    /* Configure the I2C3 clock source */
    __HAL_RCC_I2C3_CONFIG(PeriphClkInit->I2c3ClockSelection);
 800193a:	4956      	ldr	r1, [pc, #344]	@ (8001a94 <HAL_RCCEx_PeriphCLKConfig+0x2c4>)
 800193c:	6a65      	ldr	r5, [r4, #36]	@ 0x24
 800193e:	f8d1 2088 	ldr.w	r2, [r1, #136]	@ 0x88
 8001942:	f422 3240 	bic.w	r2, r2, #196608	@ 0x30000
 8001946:	432a      	orrs	r2, r5
 8001948:	f8c1 2088 	str.w	r2, [r1, #136]	@ 0x88

#endif /* I2C3 */
#if defined(I2C4)

  /*-------------------------- I2C4 clock source configuration ---------------------*/
  if(((PeriphClkInit->PeriphClockSelection) & RCC_PERIPHCLK_I2C4) == RCC_PERIPHCLK_I2C4)
 800194c:	039e      	lsls	r6, r3, #14
 800194e:	d508      	bpl.n	8001962 <HAL_RCCEx_PeriphCLKConfig+0x192>
  {
    /* Check the parameters */
    assert_param(IS_RCC_I2C4CLKSOURCE(PeriphClkInit->I2c4ClockSelection));

    /* Configure the I2C4 clock source */
    __HAL_RCC_I2C4_CONFIG(PeriphClkInit->I2c4ClockSelection);
 8001950:	4950      	ldr	r1, [pc, #320]	@ (8001a94 <HAL_RCCEx_PeriphCLKConfig+0x2c4>)
 8001952:	6aa5      	ldr	r5, [r4, #40]	@ 0x28
 8001954:	f8d1 209c 	ldr.w	r2, [r1, #156]	@ 0x9c
 8001958:	f022 0203 	bic.w	r2, r2, #3
 800195c:	432a      	orrs	r2, r5
 800195e:	f8c1 209c 	str.w	r2, [r1, #156]	@ 0x9c
  }

#endif /* I2C4 */

  /*-------------------------- LPTIM1 clock source configuration ---------------------*/
  if(((PeriphClkInit->PeriphClockSelection) & RCC_PERIPHCLK_LPTIM1) == RCC_PERIPHCLK_LPTIM1)
 8001962:	059d      	lsls	r5, r3, #22
 8001964:	d508      	bpl.n	8001978 <HAL_RCCEx_PeriphCLKConfig+0x1a8>
  {
    /* Check the parameters */
    assert_param(IS_RCC_LPTIM1CLKSOURCE(PeriphClkInit->Lptim1ClockSelection));

    /* Configure the LPTIM1 clock source */
    __HAL_RCC_LPTIM1_CONFIG(PeriphClkInit->Lptim1ClockSelection);
 8001966:	494b      	ldr	r1, [pc, #300]	@ (8001a94 <HAL_RCCEx_PeriphCLKConfig+0x2c4>)
 8001968:	6ae5      	ldr	r5, [r4, #44]	@ 0x2c
 800196a:	f8d1 2088 	ldr.w	r2, [r1, #136]	@ 0x88
 800196e:	f422 2240 	bic.w	r2, r2, #786432	@ 0xc0000
 8001972:	432a      	orrs	r2, r5
 8001974:	f8c1 2088 	str.w	r2, [r1, #136]	@ 0x88
  }

#if defined(SAI1) 
  /*-------------------------- SAI1 clock source configuration ---------------------*/
  if(((PeriphClkInit->PeriphClockSelection) & RCC_PERIPHCLK_SAI1) == RCC_PERIPHCLK_SAI1)
 8001978:	0559      	lsls	r1, r3, #21
 800197a:	d50b      	bpl.n	8001994 <HAL_RCCEx_PeriphCLKConfig+0x1c4>
  {
    /* Check the parameters */
    assert_param(IS_RCC_SAI1CLKSOURCE(PeriphClkInit->Sai1ClockSelection));

    /* Configure the SAI1 interface clock source */
    __HAL_RCC_SAI1_CONFIG(PeriphClkInit->Sai1ClockSelection);
 800197c:	4945      	ldr	r1, [pc, #276]	@ (8001a94 <HAL_RCCEx_PeriphCLKConfig+0x2c4>)
 800197e:	6b25      	ldr	r5, [r4, #48]	@ 0x30
 8001980:	f8d1 2088 	ldr.w	r2, [r1, #136]	@ 0x88
 8001984:	f422 1240 	bic.w	r2, r2, #3145728	@ 0x300000
 8001988:	432a      	orrs	r2, r5
    
    if(PeriphClkInit->Sai1ClockSelection == RCC_SAI1CLKSOURCE_PLL)
 800198a:	f5b5 1f80 	cmp.w	r5, #1048576	@ 0x100000
    __HAL_RCC_SAI1_CONFIG(PeriphClkInit->Sai1ClockSelection);
 800198e:	f8c1 2088 	str.w	r2, [r1, #136]	@ 0x88
    if(PeriphClkInit->Sai1ClockSelection == RCC_SAI1CLKSOURCE_PLL)
 8001992:	d07a      	beq.n	8001a8a <HAL_RCCEx_PeriphCLKConfig+0x2ba>

#endif /* SAI1 */

#if defined(SPI_I2S_SUPPORT)
  /*-------------------------- I2S clock source configuration ---------------------*/
  if(((PeriphClkInit->PeriphClockSelection) & RCC_PERIPHCLK_I2S) == RCC_PERIPHCLK_I2S)
 8001994:	051a      	lsls	r2, r3, #20
 8001996:	d50b      	bpl.n	80019b0 <HAL_RCCEx_PeriphCLKConfig+0x1e0>
  {
    /* Check the parameters */
    assert_param(IS_RCC_I2SCLKSOURCE(PeriphClkInit->I2sClockSelection));

    /* Configure the I2S interface clock source */
    __HAL_RCC_I2S_CONFIG(PeriphClkInit->I2sClockSelection);
 8001998:	493e      	ldr	r1, [pc, #248]	@ (8001a94 <HAL_RCCEx_PeriphCLKConfig+0x2c4>)
 800199a:	6b65      	ldr	r5, [r4, #52]	@ 0x34
 800199c:	f8d1 2088 	ldr.w	r2, [r1, #136]	@ 0x88
 80019a0:	f422 0240 	bic.w	r2, r2, #12582912	@ 0xc00000
 80019a4:	432a      	orrs	r2, r5
    
    if(PeriphClkInit->I2sClockSelection == RCC_I2SCLKSOURCE_PLL)
 80019a6:	f5b5 0f80 	cmp.w	r5, #4194304	@ 0x400000
    __HAL_RCC_I2S_CONFIG(PeriphClkInit->I2sClockSelection);
 80019aa:	f8c1 2088 	str.w	r2, [r1, #136]	@ 0x88
    if(PeriphClkInit->I2sClockSelection == RCC_I2SCLKSOURCE_PLL)
 80019ae:	d075      	beq.n	8001a9c <HAL_RCCEx_PeriphCLKConfig+0x2cc>

#endif /* SPI_I2S_SUPPORT */

#if defined(FDCAN1)
  /*-------------------------- FDCAN clock source configuration ---------------------*/
  if(((PeriphClkInit->PeriphClockSelection) & RCC_PERIPHCLK_FDCAN) == RCC_PERIPHCLK_FDCAN)
 80019b0:	04df      	lsls	r7, r3, #19
 80019b2:	d50b      	bpl.n	80019cc <HAL_RCCEx_PeriphCLKConfig+0x1fc>
  {
    /* Check the parameters */
    assert_param(IS_RCC_FDCANCLKSOURCE(PeriphClkInit->FdcanClockSelection));

    /* Configure the FDCAN interface clock source */
    __HAL_RCC_FDCAN_CONFIG(PeriphClkInit->FdcanClockSelection);
 80019b4:	4937      	ldr	r1, [pc, #220]	@ (8001a94 <HAL_RCCEx_PeriphCLKConfig+0x2c4>)
 80019b6:	6ba5      	ldr	r5, [r4, #56]	@ 0x38
 80019b8:	f8d1 2088 	ldr.w	r2, [r1, #136]	@ 0x88
 80019bc:	f022 7240 	bic.w	r2, r2, #50331648	@ 0x3000000
 80019c0:	432a      	orrs	r2, r5
    
    if(PeriphClkInit->FdcanClockSelection == RCC_FDCANCLKSOURCE_PLL)
 80019c2:	f1b5 7f80 	cmp.w	r5, #16777216	@ 0x1000000
    __HAL_RCC_FDCAN_CONFIG(PeriphClkInit->FdcanClockSelection);
 80019c6:	f8c1 2088 	str.w	r2, [r1, #136]	@ 0x88
    if(PeriphClkInit->FdcanClockSelection == RCC_FDCANCLKSOURCE_PLL)
 80019ca:	d06c      	beq.n	8001aa6 <HAL_RCCEx_PeriphCLKConfig+0x2d6>
#endif /* FDCAN1 */

#if defined(USB)

  /*-------------------------- USB clock source configuration ----------------------*/
  if(((PeriphClkInit->PeriphClockSelection) & RCC_PERIPHCLK_USB) == (RCC_PERIPHCLK_USB))
 80019cc:	049e      	lsls	r6, r3, #18
 80019ce:	d50b      	bpl.n	80019e8 <HAL_RCCEx_PeriphCLKConfig+0x218>
  {
    assert_param(IS_RCC_USBCLKSOURCE(PeriphClkInit->UsbClockSelection));
    __HAL_RCC_USB_CONFIG(PeriphClkInit->UsbClockSelection);
 80019d0:	4930      	ldr	r1, [pc, #192]	@ (8001a94 <HAL_RCCEx_PeriphCLKConfig+0x2c4>)
 80019d2:	6be5      	ldr	r5, [r4, #60]	@ 0x3c
 80019d4:	f8d1 2088 	ldr.w	r2, [r1, #136]	@ 0x88
 80019d8:	f022 6240 	bic.w	r2, r2, #201326592	@ 0xc000000
 80019dc:	432a      	orrs	r2, r5

    if(PeriphClkInit->UsbClockSelection == RCC_USBCLKSOURCE_PLL)
 80019de:	f1b5 6f00 	cmp.w	r5, #134217728	@ 0x8000000
    __HAL_RCC_USB_CONFIG(PeriphClkInit->UsbClockSelection);
 80019e2:	f8c1 2088 	str.w	r2, [r1, #136]	@ 0x88
    if(PeriphClkInit->UsbClockSelection == RCC_USBCLKSOURCE_PLL)
 80019e6:	d063      	beq.n	8001ab0 <HAL_RCCEx_PeriphCLKConfig+0x2e0>
  }

#endif /* USB */

  /*-------------------------- RNG clock source configuration ----------------------*/
  if(((PeriphClkInit->PeriphClockSelection) & RCC_PERIPHCLK_RNG) == (RCC_PERIPHCLK_RNG))
 80019e8:	045d      	lsls	r5, r3, #17
 80019ea:	d50b      	bpl.n	8001a04 <HAL_RCCEx_PeriphCLKConfig+0x234>
  {
    assert_param(IS_RCC_RNGCLKSOURCE(PeriphClkInit->RngClockSelection));
    __HAL_RCC_RNG_CONFIG(PeriphClkInit->RngClockSelection);
 80019ec:	4929      	ldr	r1, [pc, #164]	@ (8001a94 <HAL_RCCEx_PeriphCLKConfig+0x2c4>)
 80019ee:	6c25      	ldr	r5, [r4, #64]	@ 0x40
 80019f0:	f8d1 2088 	ldr.w	r2, [r1, #136]	@ 0x88
 80019f4:	f022 6240 	bic.w	r2, r2, #201326592	@ 0xc000000
 80019f8:	432a      	orrs	r2, r5

    if(PeriphClkInit->RngClockSelection == RCC_RNGCLKSOURCE_PLL)
 80019fa:	f1b5 6f00 	cmp.w	r5, #134217728	@ 0x8000000
    __HAL_RCC_RNG_CONFIG(PeriphClkInit->RngClockSelection);
 80019fe:	f8c1 2088 	str.w	r2, [r1, #136]	@ 0x88
    if(PeriphClkInit->RngClockSelection == RCC_RNGCLKSOURCE_PLL)
 8001a02:	d05a      	beq.n	8001aba <HAL_RCCEx_PeriphCLKConfig+0x2ea>
      __HAL_RCC_PLLCLKOUT_ENABLE(RCC_PLL_48M1CLK);
    }
  }

  /*-------------------------- ADC12 clock source configuration ----------------------*/
  if(((PeriphClkInit->PeriphClockSelection) & RCC_PERIPHCLK_ADC12) == RCC_PERIPHCLK_ADC12)
 8001a04:	0419      	lsls	r1, r3, #16
 8001a06:	d50b      	bpl.n	8001a20 <HAL_RCCEx_PeriphCLKConfig+0x250>
  {
    /* Check the parameters */
    assert_param(IS_RCC_ADC12CLKSOURCE(PeriphClkInit->Adc12ClockSelection));

    /* Configure the ADC12 interface clock source */
    __HAL_RCC_ADC12_CONFIG(PeriphClkInit->Adc12ClockSelection);
 8001a08:	4922      	ldr	r1, [pc, #136]	@ (8001a94 <HAL_RCCEx_PeriphCLKConfig+0x2c4>)
 8001a0a:	6c65      	ldr	r5, [r4, #68]	@ 0x44
 8001a0c:	f8d1 2088 	ldr.w	r2, [r1, #136]	@ 0x88
 8001a10:	f022 5240 	bic.w	r2, r2, #805306368	@ 0x30000000
 8001a14:	432a      	orrs	r2, r5
    
    if(PeriphClkInit->Adc12ClockSelection == RCC_ADC12CLKSOURCE_PLL)
 8001a16:	f1b5 5f80 	cmp.w	r5, #268435456	@ 0x10000000
    __HAL_RCC_ADC12_CONFIG(PeriphClkInit->Adc12ClockSelection);
 8001a1a:	f8c1 2088 	str.w	r2, [r1, #136]	@ 0x88
    if(PeriphClkInit->Adc12ClockSelection == RCC_ADC12CLKSOURCE_PLL)
 8001a1e:	d051      	beq.n	8001ac4 <HAL_RCCEx_PeriphCLKConfig+0x2f4>
    }
  }
  
#if defined(ADC345_COMMON)
  /*-------------------------- ADC345 clock source configuration ----------------------*/
  if(((PeriphClkInit->PeriphClockSelection) & RCC_PERIPHCLK_ADC345) == RCC_PERIPHCLK_ADC345)
 8001a20:	03da      	lsls	r2, r3, #15
 8001a22:	d50b      	bpl.n	8001a3c <HAL_RCCEx_PeriphCLKConfig+0x26c>
  {
    /* Check the parameters */
    assert_param(IS_RCC_ADC345CLKSOURCE(PeriphClkInit->Adc345ClockSelection));

    /* Configure the ADC345 interface clock source */
    __HAL_RCC_ADC345_CONFIG(PeriphClkInit->Adc345ClockSelection);
 8001a24:	491b      	ldr	r1, [pc, #108]	@ (8001a94 <HAL_RCCEx_PeriphCLKConfig+0x2c4>)
 8001a26:	6ca5      	ldr	r5, [r4, #72]	@ 0x48
 8001a28:	f8d1 2088 	ldr.w	r2, [r1, #136]	@ 0x88
 8001a2c:	f022 4240 	bic.w	r2, r2, #3221225472	@ 0xc0000000
 8001a30:	432a      	orrs	r2, r5
    
    if(PeriphClkInit->Adc345ClockSelection == RCC_ADC345CLKSOURCE_PLL)
 8001a32:	f1b5 4f80 	cmp.w	r5, #1073741824	@ 0x40000000
    __HAL_RCC_ADC345_CONFIG(PeriphClkInit->Adc345ClockSelection);
 8001a36:	f8c1 2088 	str.w	r2, [r1, #136]	@ 0x88
    if(PeriphClkInit->Adc345ClockSelection == RCC_ADC345CLKSOURCE_PLL)
 8001a3a:	d048      	beq.n	8001ace <HAL_RCCEx_PeriphCLKConfig+0x2fe>
#endif /* ADC345_COMMON */

#if defined(QUADSPI)

  /*-------------------------- QuadSPIx clock source configuration ----------------*/
  if(((PeriphClkInit->PeriphClockSelection) & RCC_PERIPHCLK_QSPI) == RCC_PERIPHCLK_QSPI)
 8001a3c:	035b      	lsls	r3, r3, #13
 8001a3e:	d50b      	bpl.n	8001a58 <HAL_RCCEx_PeriphCLKConfig+0x288>
  {
    /* Check the parameters */
    assert_param(IS_RCC_QSPICLKSOURCE(PeriphClkInit->QspiClockSelection));

    /* Configure the QuadSPI clock source */
    __HAL_RCC_QSPI_CONFIG(PeriphClkInit->QspiClockSelection);
 8001a40:	4a14      	ldr	r2, [pc, #80]	@ (8001a94 <HAL_RCCEx_PeriphCLKConfig+0x2c4>)
 8001a42:	6ce1      	ldr	r1, [r4, #76]	@ 0x4c
 8001a44:	f8d2 309c 	ldr.w	r3, [r2, #156]	@ 0x9c
 8001a48:	f423 1340 	bic.w	r3, r3, #3145728	@ 0x300000
 8001a4c:	430b      	orrs	r3, r1

    if(PeriphClkInit->QspiClockSelection == RCC_QSPICLKSOURCE_PLL)
 8001a4e:	f5b1 1f00 	cmp.w	r1, #2097152	@ 0x200000
    __HAL_RCC_QSPI_CONFIG(PeriphClkInit->QspiClockSelection);
 8001a52:	f8c2 309c 	str.w	r3, [r2, #156]	@ 0x9c
    if(PeriphClkInit->QspiClockSelection == RCC_QSPICLKSOURCE_PLL)
 8001a56:	d03f      	beq.n	8001ad8 <HAL_RCCEx_PeriphCLKConfig+0x308>
  }

#endif /* QUADSPI */

  return status;
}
 8001a58:	b002      	add	sp, #8
 8001a5a:	e8bd 81f0 	ldmia.w	sp!, {r4, r5, r6, r7, r8, pc}
      __HAL_RCC_PWR_CLK_ENABLE();
 8001a5e:	6d9a      	ldr	r2, [r3, #88]	@ 0x58
 8001a60:	f042 5280 	orr.w	r2, r2, #268435456	@ 0x10000000
 8001a64:	659a      	str	r2, [r3, #88]	@ 0x58
 8001a66:	6d9b      	ldr	r3, [r3, #88]	@ 0x58
 8001a68:	f003 5380 	and.w	r3, r3, #268435456	@ 0x10000000
 8001a6c:	9301      	str	r3, [sp, #4]
 8001a6e:	9b01      	ldr	r3, [sp, #4]
      pwrclkchanged = SET;
 8001a70:	2701      	movs	r7, #1
 8001a72:	e6bb      	b.n	80017ec <HAL_RCCEx_PeriphCLKConfig+0x1c>
  if(((PeriphClkInit->PeriphClockSelection) & RCC_PERIPHCLK_USART1) == RCC_PERIPHCLK_USART1)
 8001a74:	6823      	ldr	r3, [r4, #0]
        status = ret;
 8001a76:	2003      	movs	r0, #3
    if(pwrclkchanged == SET)
 8001a78:	2f00      	cmp	r7, #0
 8001a7a:	f43f af04 	beq.w	8001886 <HAL_RCCEx_PeriphCLKConfig+0xb6>
      __HAL_RCC_PWR_CLK_DISABLE();
 8001a7e:	4905      	ldr	r1, [pc, #20]	@ (8001a94 <HAL_RCCEx_PeriphCLKConfig+0x2c4>)
 8001a80:	6d8a      	ldr	r2, [r1, #88]	@ 0x58
 8001a82:	f022 5280 	bic.w	r2, r2, #268435456	@ 0x10000000
 8001a86:	658a      	str	r2, [r1, #88]	@ 0x58
 8001a88:	e6fd      	b.n	8001886 <HAL_RCCEx_PeriphCLKConfig+0xb6>
      __HAL_RCC_PLLCLKOUT_ENABLE(RCC_PLL_48M1CLK);
 8001a8a:	68ca      	ldr	r2, [r1, #12]
 8001a8c:	f442 1280 	orr.w	r2, r2, #1048576	@ 0x100000
 8001a90:	60ca      	str	r2, [r1, #12]
 8001a92:	e77f      	b.n	8001994 <HAL_RCCEx_PeriphCLKConfig+0x1c4>
 8001a94:	40021000 	.word	0x40021000
 8001a98:	40007000 	.word	0x40007000
      __HAL_RCC_PLLCLKOUT_ENABLE(RCC_PLL_48M1CLK);
 8001a9c:	68ca      	ldr	r2, [r1, #12]
 8001a9e:	f442 1280 	orr.w	r2, r2, #1048576	@ 0x100000
 8001aa2:	60ca      	str	r2, [r1, #12]
 8001aa4:	e784      	b.n	80019b0 <HAL_RCCEx_PeriphCLKConfig+0x1e0>
      __HAL_RCC_PLLCLKOUT_ENABLE(RCC_PLL_48M1CLK);
 8001aa6:	68ca      	ldr	r2, [r1, #12]
 8001aa8:	f442 1280 	orr.w	r2, r2, #1048576	@ 0x100000
 8001aac:	60ca      	str	r2, [r1, #12]
 8001aae:	e78d      	b.n	80019cc <HAL_RCCEx_PeriphCLKConfig+0x1fc>
      __HAL_RCC_PLLCLKOUT_ENABLE(RCC_PLL_48M1CLK);
 8001ab0:	68ca      	ldr	r2, [r1, #12]
 8001ab2:	f442 1280 	orr.w	r2, r2, #1048576	@ 0x100000
 8001ab6:	60ca      	str	r2, [r1, #12]
 8001ab8:	e796      	b.n	80019e8 <HAL_RCCEx_PeriphCLKConfig+0x218>
      __HAL_RCC_PLLCLKOUT_ENABLE(RCC_PLL_48M1CLK);
 8001aba:	68ca      	ldr	r2, [r1, #12]
 8001abc:	f442 1280 	orr.w	r2, r2, #1048576	@ 0x100000
 8001ac0:	60ca      	str	r2, [r1, #12]
 8001ac2:	e79f      	b.n	8001a04 <HAL_RCCEx_PeriphCLKConfig+0x234>
      __HAL_RCC_PLLCLKOUT_ENABLE(RCC_PLL_ADCCLK);
 8001ac4:	68ca      	ldr	r2, [r1, #12]
 8001ac6:	f442 3280 	orr.w	r2, r2, #65536	@ 0x10000
 8001aca:	60ca      	str	r2, [r1, #12]
 8001acc:	e7a8      	b.n	8001a20 <HAL_RCCEx_PeriphCLKConfig+0x250>
      __HAL_RCC_PLLCLKOUT_ENABLE(RCC_PLL_ADCCLK);
 8001ace:	68ca      	ldr	r2, [r1, #12]
 8001ad0:	f442 3280 	orr.w	r2, r2, #65536	@ 0x10000
 8001ad4:	60ca      	str	r2, [r1, #12]
 8001ad6:	e7b1      	b.n	8001a3c <HAL_RCCEx_PeriphCLKConfig+0x26c>
      __HAL_RCC_PLLCLKOUT_ENABLE(RCC_PLL_48M1CLK);
 8001ad8:	68d3      	ldr	r3, [r2, #12]
 8001ada:	f443 1380 	orr.w	r3, r3, #1048576	@ 0x100000
 8001ade:	60d3      	str	r3, [r2, #12]
}
 8001ae0:	b002      	add	sp, #8
 8001ae2:	e8bd 81f0 	ldmia.w	sp!, {r4, r5, r6, r7, r8, pc}
 8001ae6:	bf00      	nop

08001ae8 <HAL_UART_Receive_IT>:
  * @retval HAL status
  */
HAL_StatusTypeDef HAL_UART_Receive_IT(UART_HandleTypeDef *huart, uint8_t *pData, uint16_t Size)
{
  /* Check that a Rx process is not already ongoing */
  if (huart->RxState == HAL_UART_STATE_READY)
 8001ae8:	f8d0 308c 	ldr.w	r3, [r0, #140]	@ 0x8c
 8001aec:	2b20      	cmp	r3, #32
 8001aee:	d152      	bne.n	8001b96 <HAL_UART_Receive_IT+0xae>
  {
    if ((pData == NULL) || (Size == 0U))
 8001af0:	b101      	cbz	r1, 8001af4 <HAL_UART_Receive_IT+0xc>
 8001af2:	b90a      	cbnz	r2, 8001af8 <HAL_UART_Receive_IT+0x10>
    {
      return HAL_ERROR;
 8001af4:	2001      	movs	r0, #1
  }
  else
  {
    return HAL_BUSY;
  }
}
 8001af6:	4770      	bx	lr
{
 8001af8:	b430      	push	{r4, r5}
    if (!(IS_LPUART_INSTANCE(huart->Instance)))
 8001afa:	6803      	ldr	r3, [r0, #0]
 8001afc:	4c52      	ldr	r4, [pc, #328]	@ (8001c48 <HAL_UART_Receive_IT+0x160>)
    huart->ReceptionType = HAL_UART_RECEPTION_STANDARD;
 8001afe:	2500      	movs	r5, #0
    if (!(IS_LPUART_INSTANCE(huart->Instance)))
 8001b00:	42a3      	cmp	r3, r4
    huart->ReceptionType = HAL_UART_RECEPTION_STANDARD;
 8001b02:	66c5      	str	r5, [r0, #108]	@ 0x6c
    if (!(IS_LPUART_INSTANCE(huart->Instance)))
 8001b04:	d00a      	beq.n	8001b1c <HAL_UART_Receive_IT+0x34>
      if (READ_BIT(huart->Instance->CR2, USART_CR2_RTOEN) != 0U)
 8001b06:	685c      	ldr	r4, [r3, #4]
 8001b08:	0224      	lsls	r4, r4, #8
 8001b0a:	d507      	bpl.n	8001b1c <HAL_UART_Receive_IT+0x34>
 */
__STATIC_FORCEINLINE uint32_t __LDREXW(volatile uint32_t *addr)
{
    uint32_t result;

   __ASM volatile ("ldrex %0, %1" : "=r" (result) : "Q" (*addr) );
 8001b0c:	e853 4f00 	ldrex	r4, [r3]
        ATOMIC_SET_BIT(huart->Instance->CR1, USART_CR1_RTOIE);
 8001b10:	f044 6480 	orr.w	r4, r4, #67108864	@ 0x4000000
 */
__STATIC_FORCEINLINE uint32_t __STREXW(uint32_t value, volatile uint32_t *addr)
{
   uint32_t result;

   __ASM volatile ("strex %0, %2, %1" : "=&r" (result), "=Q" (*addr) : "r" (value) );
 8001b14:	e843 4500 	strex	r5, r4, [r3]
 8001b18:	2d00      	cmp	r5, #0
 8001b1a:	d1f7      	bne.n	8001b0c <HAL_UART_Receive_IT+0x24>
  huart->RxXferSize  = Size;
  huart->RxXferCount = Size;
  huart->RxISR       = NULL;

  /* Computation of UART mask to apply to RDR register */
  UART_MASK_COMPUTATION(huart);
 8001b1c:	6885      	ldr	r5, [r0, #8]
  huart->pRxBuffPtr  = pData;
 8001b1e:	6581      	str	r1, [r0, #88]	@ 0x58
  huart->RxISR       = NULL;
 8001b20:	2400      	movs	r4, #0
  UART_MASK_COMPUTATION(huart);
 8001b22:	f5b5 5f80 	cmp.w	r5, #4096	@ 0x1000
  huart->RxXferSize  = Size;
 8001b26:	f8a0 205c 	strh.w	r2, [r0, #92]	@ 0x5c
  huart->RxXferCount = Size;
 8001b2a:	f8a0 205e 	strh.w	r2, [r0, #94]	@ 0x5e
  huart->RxISR       = NULL;
 8001b2e:	6744      	str	r4, [r0, #116]	@ 0x74
  UART_MASK_COMPUTATION(huart);
 8001b30:	d048      	beq.n	8001bc4 <HAL_UART_Receive_IT+0xdc>
 8001b32:	2d00      	cmp	r5, #0
 8001b34:	d164      	bne.n	8001c00 <HAL_UART_Receive_IT+0x118>
 8001b36:	6901      	ldr	r1, [r0, #16]
 8001b38:	2900      	cmp	r1, #0
 8001b3a:	bf14      	ite	ne
 8001b3c:	247f      	movne	r4, #127	@ 0x7f
 8001b3e:	24ff      	moveq	r4, #255	@ 0xff

  huart->ErrorCode = HAL_UART_ERROR_NONE;
 8001b40:	2100      	movs	r1, #0
 8001b42:	f8c0 1090 	str.w	r1, [r0, #144]	@ 0x90
  huart->RxState = HAL_UART_STATE_BUSY_RX;
 8001b46:	2122      	movs	r1, #34	@ 0x22
  UART_MASK_COMPUTATION(huart);
 8001b48:	f8a0 4060 	strh.w	r4, [r0, #96]	@ 0x60
  huart->RxState = HAL_UART_STATE_BUSY_RX;
 8001b4c:	f8c0 108c 	str.w	r1, [r0, #140]	@ 0x8c
   __ASM volatile ("ldrex %0, %1" : "=r" (result) : "Q" (*addr) );
 8001b50:	f103 0108 	add.w	r1, r3, #8
 8001b54:	e851 1f00 	ldrex	r1, [r1]

  /* Enable the UART Error Interrupt: (Frame error, noise error, overrun error) */
  ATOMIC_SET_BIT(huart->Instance->CR3, USART_CR3_EIE);
 8001b58:	f041 0101 	orr.w	r1, r1, #1
   __ASM volatile ("strex %0, %2, %1" : "=&r" (result), "=Q" (*addr) : "r" (value) );
 8001b5c:	f103 0508 	add.w	r5, r3, #8
 8001b60:	e845 1400 	strex	r4, r1, [r5]
 8001b64:	2c00      	cmp	r4, #0
 8001b66:	d1f3      	bne.n	8001b50 <HAL_UART_Receive_IT+0x68>

  /* Configure Rx interrupt processing */
  if ((huart->FifoMode == UART_FIFOMODE_ENABLE) && (Size >= huart->NbRxDataToProcess))
 8001b68:	6e41      	ldr	r1, [r0, #100]	@ 0x64
  {
    /* Set the Rx ISR function pointer according to the data word length */
    if ((huart->Init.WordLength == UART_WORDLENGTH_9B) && (huart->Init.Parity == UART_PARITY_NONE))
 8001b6a:	6885      	ldr	r5, [r0, #8]
 8001b6c:	6904      	ldr	r4, [r0, #16]
  if ((huart->FifoMode == UART_FIFOMODE_ENABLE) && (Size >= huart->NbRxDataToProcess))
 8001b6e:	f1b1 5f00 	cmp.w	r1, #536870912	@ 0x20000000
 8001b72:	d02e      	beq.n	8001bd2 <HAL_UART_Receive_IT+0xea>
    ATOMIC_SET_BIT(huart->Instance->CR3, USART_CR3_RXFTIE);
  }
  else
  {
    /* Set the Rx ISR function pointer according to the data word length */
    if ((huart->Init.WordLength == UART_WORDLENGTH_9B) && (huart->Init.Parity == UART_PARITY_NONE))
 8001b74:	f5b5 5f80 	cmp.w	r5, #4096	@ 0x1000
 8001b78:	d00f      	beq.n	8001b9a <HAL_UART_Receive_IT+0xb2>
 8001b7a:	4a34      	ldr	r2, [pc, #208]	@ (8001c4c <HAL_UART_Receive_IT+0x164>)
 8001b7c:	6742      	str	r2, [r0, #116]	@ 0x74
    {
      huart->RxISR = UART_RxISR_8BIT;
    }

    /* Enable the UART Parity Error interrupt and Data Register Not Empty interrupt */
    if (huart->Init.Parity != UART_PARITY_NONE)
 8001b7e:	b184      	cbz	r4, 8001ba2 <HAL_UART_Receive_IT+0xba>
   __ASM volatile ("ldrex %0, %1" : "=r" (result) : "Q" (*addr) );
 8001b80:	e853 2f00 	ldrex	r2, [r3]
    {
      ATOMIC_SET_BIT(huart->Instance->CR1, USART_CR1_PEIE | USART_CR1_RXNEIE_RXFNEIE);
 8001b84:	f442 7290 	orr.w	r2, r2, #288	@ 0x120
   __ASM volatile ("strex %0, %2, %1" : "=&r" (result), "=Q" (*addr) : "r" (value) );
 8001b88:	e843 2100 	strex	r1, r2, [r3]
 8001b8c:	2900      	cmp	r1, #0
 8001b8e:	d1f7      	bne.n	8001b80 <HAL_UART_Receive_IT+0x98>
    return (UART_Start_Receive_IT(huart, pData, Size));
 8001b90:	2000      	movs	r0, #0
}
 8001b92:	bc30      	pop	{r4, r5}
 8001b94:	4770      	bx	lr
    return HAL_BUSY;
 8001b96:	2002      	movs	r0, #2
 8001b98:	4770      	bx	lr
    if ((huart->Init.WordLength == UART_WORDLENGTH_9B) && (huart->Init.Parity == UART_PARITY_NONE))
 8001b9a:	2c00      	cmp	r4, #0
 8001b9c:	d14d      	bne.n	8001c3a <HAL_UART_Receive_IT+0x152>
 8001b9e:	4a2c      	ldr	r2, [pc, #176]	@ (8001c50 <HAL_UART_Receive_IT+0x168>)
 8001ba0:	6742      	str	r2, [r0, #116]	@ 0x74
   __ASM volatile ("ldrex %0, %1" : "=r" (result) : "Q" (*addr) );
 8001ba2:	e853 2f00 	ldrex	r2, [r3]
    }
    else
    {
      ATOMIC_SET_BIT(huart->Instance->CR1, USART_CR1_RXNEIE_RXFNEIE);
 8001ba6:	f042 0220 	orr.w	r2, r2, #32
   __ASM volatile ("strex %0, %2, %1" : "=&r" (result), "=Q" (*addr) : "r" (value) );
 8001baa:	e843 2100 	strex	r1, r2, [r3]
 8001bae:	2900      	cmp	r1, #0
 8001bb0:	d0ee      	beq.n	8001b90 <HAL_UART_Receive_IT+0xa8>
   __ASM volatile ("ldrex %0, %1" : "=r" (result) : "Q" (*addr) );
 8001bb2:	e853 2f00 	ldrex	r2, [r3]
 8001bb6:	f042 0220 	orr.w	r2, r2, #32
   __ASM volatile ("strex %0, %2, %1" : "=&r" (result), "=Q" (*addr) : "r" (value) );
 8001bba:	e843 2100 	strex	r1, r2, [r3]
 8001bbe:	2900      	cmp	r1, #0
 8001bc0:	d1ef      	bne.n	8001ba2 <HAL_UART_Receive_IT+0xba>
 8001bc2:	e7e5      	b.n	8001b90 <HAL_UART_Receive_IT+0xa8>
  UART_MASK_COMPUTATION(huart);
 8001bc4:	6901      	ldr	r1, [r0, #16]
 8001bc6:	2900      	cmp	r1, #0
 8001bc8:	f240 14ff 	movw	r4, #511	@ 0x1ff
 8001bcc:	bf18      	it	ne
 8001bce:	24ff      	movne	r4, #255	@ 0xff
 8001bd0:	e7b6      	b.n	8001b40 <HAL_UART_Receive_IT+0x58>
  if ((huart->FifoMode == UART_FIFOMODE_ENABLE) && (Size >= huart->NbRxDataToProcess))
 8001bd2:	f8b0 1068 	ldrh.w	r1, [r0, #104]	@ 0x68
 8001bd6:	4291      	cmp	r1, r2
 8001bd8:	d8cc      	bhi.n	8001b74 <HAL_UART_Receive_IT+0x8c>
    if ((huart->Init.WordLength == UART_WORDLENGTH_9B) && (huart->Init.Parity == UART_PARITY_NONE))
 8001bda:	f5b5 5f80 	cmp.w	r5, #4096	@ 0x1000
 8001bde:	d018      	beq.n	8001c12 <HAL_UART_Receive_IT+0x12a>
      huart->RxISR = UART_RxISR_8BIT_FIFOEN;
 8001be0:	4a1c      	ldr	r2, [pc, #112]	@ (8001c54 <HAL_UART_Receive_IT+0x16c>)
 8001be2:	6742      	str	r2, [r0, #116]	@ 0x74
    if (huart->Init.Parity != UART_PARITY_NONE)
 8001be4:	b9c4      	cbnz	r4, 8001c18 <HAL_UART_Receive_IT+0x130>
   __ASM volatile ("ldrex %0, %1" : "=r" (result) : "Q" (*addr) );
 8001be6:	f103 0208 	add.w	r2, r3, #8
 8001bea:	e852 2f00 	ldrex	r2, [r2]
    ATOMIC_SET_BIT(huart->Instance->CR3, USART_CR3_RXFTIE);
 8001bee:	f042 5280 	orr.w	r2, r2, #268435456	@ 0x10000000
   __ASM volatile ("strex %0, %2, %1" : "=&r" (result), "=Q" (*addr) : "r" (value) );
 8001bf2:	f103 0008 	add.w	r0, r3, #8
 8001bf6:	e840 2100 	strex	r1, r2, [r0]
 8001bfa:	2900      	cmp	r1, #0
 8001bfc:	d1f3      	bne.n	8001be6 <HAL_UART_Receive_IT+0xfe>
 8001bfe:	e7c7      	b.n	8001b90 <HAL_UART_Receive_IT+0xa8>
  UART_MASK_COMPUTATION(huart);
 8001c00:	f1b5 5f80 	cmp.w	r5, #268435456	@ 0x10000000
 8001c04:	d19c      	bne.n	8001b40 <HAL_UART_Receive_IT+0x58>
 8001c06:	6901      	ldr	r1, [r0, #16]
 8001c08:	2900      	cmp	r1, #0
 8001c0a:	bf14      	ite	ne
 8001c0c:	243f      	movne	r4, #63	@ 0x3f
 8001c0e:	247f      	moveq	r4, #127	@ 0x7f
 8001c10:	e796      	b.n	8001b40 <HAL_UART_Receive_IT+0x58>
    if ((huart->Init.WordLength == UART_WORDLENGTH_9B) && (huart->Init.Parity == UART_PARITY_NONE))
 8001c12:	b1ac      	cbz	r4, 8001c40 <HAL_UART_Receive_IT+0x158>
      huart->RxISR = UART_RxISR_8BIT_FIFOEN;
 8001c14:	4a0f      	ldr	r2, [pc, #60]	@ (8001c54 <HAL_UART_Receive_IT+0x16c>)
 8001c16:	6742      	str	r2, [r0, #116]	@ 0x74
   __ASM volatile ("ldrex %0, %1" : "=r" (result) : "Q" (*addr) );
 8001c18:	e853 2f00 	ldrex	r2, [r3]
      ATOMIC_SET_BIT(huart->Instance->CR1, USART_CR1_PEIE);
 8001c1c:	f442 7280 	orr.w	r2, r2, #256	@ 0x100
   __ASM volatile ("strex %0, %2, %1" : "=&r" (result), "=Q" (*addr) : "r" (value) );
 8001c20:	e843 2100 	strex	r1, r2, [r3]
 8001c24:	2900      	cmp	r1, #0
 8001c26:	d0de      	beq.n	8001be6 <HAL_UART_Receive_IT+0xfe>
   __ASM volatile ("ldrex %0, %1" : "=r" (result) : "Q" (*addr) );
 8001c28:	e853 2f00 	ldrex	r2, [r3]
 8001c2c:	f442 7280 	orr.w	r2, r2, #256	@ 0x100
   __ASM volatile ("strex %0, %2, %1" : "=&r" (result), "=Q" (*addr) : "r" (value) );
 8001c30:	e843 2100 	strex	r1, r2, [r3]
 8001c34:	2900      	cmp	r1, #0
 8001c36:	d1ef      	bne.n	8001c18 <HAL_UART_Receive_IT+0x130>
 8001c38:	e7d5      	b.n	8001be6 <HAL_UART_Receive_IT+0xfe>
 8001c3a:	4a04      	ldr	r2, [pc, #16]	@ (8001c4c <HAL_UART_Receive_IT+0x164>)
 8001c3c:	6742      	str	r2, [r0, #116]	@ 0x74
    if (huart->Init.Parity != UART_PARITY_NONE)
 8001c3e:	e79f      	b.n	8001b80 <HAL_UART_Receive_IT+0x98>
 8001c40:	4a05      	ldr	r2, [pc, #20]	@ (8001c58 <HAL_UART_Receive_IT+0x170>)
 8001c42:	6742      	str	r2, [r0, #116]	@ 0x74
    if (huart->Init.Parity != UART_PARITY_NONE)
 8001c44:	e7cf      	b.n	8001be6 <HAL_UART_Receive_IT+0xfe>
 8001c46:	bf00      	nop
 8001c48:	40008000 	.word	0x40008000
 8001c4c:	080020ed 	.word	0x080020ed
 8001c50:	080020a5 	.word	0x080020a5
 8001c54:	08002131 	.word	0x08002131
 8001c58:	080022fd 	.word	0x080022fd

08001c5c <HAL_UART_TxCpltCallback>:
__weak void HAL_UART_TxCpltCallback(UART_HandleTypeDef *huart)
 8001c5c:	4770      	bx	lr
 8001c5e:	bf00      	nop

08001c60 <HAL_UART_ErrorCallback>:
__weak void HAL_UART_ErrorCallback(UART_HandleTypeDef *huart)
 8001c60:	4770      	bx	lr
 8001c62:	bf00      	nop

08001c64 <UART_DMAAbortOnError>:
  *         (To be called at end of DMA Abort procedure following error occurrence).
  * @param  hdma DMA handle.
  * @retval None
  */
static void UART_DMAAbortOnError(DMA_HandleTypeDef *hdma)
{
 8001c64:	b508      	push	{r3, lr}
  UART_HandleTypeDef *huart = (UART_HandleTypeDef *)(hdma->Parent);
 8001c66:	6a80      	ldr	r0, [r0, #40]	@ 0x28
  huart->RxXferCount = 0U;
 8001c68:	2300      	movs	r3, #0
 8001c6a:	f8a0 305e 	strh.w	r3, [r0, #94]	@ 0x5e
#if (USE_HAL_UART_REGISTER_CALLBACKS == 1)
  /*Call registered error callback*/
  huart->ErrorCallback(huart);
#else
  /*Call legacy weak error callback*/
  HAL_UART_ErrorCallback(huart);
 8001c6e:	f7ff fff7 	bl	8001c60 <HAL_UART_ErrorCallback>
#endif /* USE_HAL_UART_REGISTER_CALLBACKS */
}
 8001c72:	bd08      	pop	{r3, pc}

08001c74 <HAL_UARTEx_RxEventCallback>:
}
 8001c74:	4770      	bx	lr
 8001c76:	bf00      	nop

08001c78 <HAL_UART_IRQHandler>:
  uint32_t isrflags   = READ_REG(huart->Instance->ISR);
 8001c78:	6803      	ldr	r3, [r0, #0]
 8001c7a:	69da      	ldr	r2, [r3, #28]
  uint32_t cr1its     = READ_REG(huart->Instance->CR1);
 8001c7c:	6819      	ldr	r1, [r3, #0]
  errorflags = (isrflags & (uint32_t)(USART_ISR_PE | USART_ISR_FE | USART_ISR_ORE | USART_ISR_NE | USART_ISR_RTOF));
 8001c7e:	f640 0c0f 	movw	ip, #2063	@ 0x80f
  if (errorflags == 0U)
 8001c82:	ea12 0f0c 	tst.w	r2, ip
{
 8001c86:	b570      	push	{r4, r5, r6, lr}
  uint32_t cr3its     = READ_REG(huart->Instance->CR3);
 8001c88:	689d      	ldr	r5, [r3, #8]
{
 8001c8a:	4604      	mov	r4, r0
  if (errorflags == 0U)
 8001c8c:	d145      	bne.n	8001d1a <HAL_UART_IRQHandler+0xa2>
    if (((isrflags & USART_ISR_RXNE_RXFNE) != 0U)
 8001c8e:	0696      	lsls	r6, r2, #26
 8001c90:	d507      	bpl.n	8001ca2 <HAL_UART_IRQHandler+0x2a>
        && (((cr1its & USART_CR1_RXNEIE_RXFNEIE) != 0U)
 8001c92:	f001 0c20 	and.w	ip, r1, #32
            || ((cr3its & USART_CR3_RXFTIE) != 0U)))
 8001c96:	f005 5e80 	and.w	lr, r5, #268435456	@ 0x10000000
 8001c9a:	ea5c 0c0e 	orrs.w	ip, ip, lr
 8001c9e:	f040 8106 	bne.w	8001eae <HAL_UART_IRQHandler+0x236>
  if ((huart->ReceptionType == HAL_UART_RECEPTION_TOIDLE)
 8001ca2:	6ee0      	ldr	r0, [r4, #108]	@ 0x6c
 8001ca4:	2801      	cmp	r0, #1
 8001ca6:	f000 80d3 	beq.w	8001e50 <HAL_UART_IRQHandler+0x1d8>
  if (((isrflags & USART_ISR_WUF) != 0U) && ((cr3its & USART_CR3_WUFIE) != 0U))
 8001caa:	02d6      	lsls	r6, r2, #11
 8001cac:	d41d      	bmi.n	8001cea <HAL_UART_IRQHandler+0x72>
  if (((isrflags & USART_ISR_TXE_TXFNF) != 0U)
 8001cae:	0616      	lsls	r6, r2, #24
 8001cb0:	d506      	bpl.n	8001cc0 <HAL_UART_IRQHandler+0x48>
          || ((cr3its & USART_CR3_TXFTIE) != 0U)))
 8001cb2:	f405 0500 	and.w	r5, r5, #8388608	@ 0x800000
      && (((cr1its & USART_CR1_TXEIE_TXFNFIE) != 0U)
 8001cb6:	f001 0080 	and.w	r0, r1, #128	@ 0x80
          || ((cr3its & USART_CR3_TXFTIE) != 0U)))
 8001cba:	4328      	orrs	r0, r5
 8001cbc:	f040 80fe 	bne.w	8001ebc <HAL_UART_IRQHandler+0x244>
  if (((isrflags & USART_ISR_TC) != 0U) && ((cr1its & USART_CR1_TCIE) != 0U))
 8001cc0:	0650      	lsls	r0, r2, #25
 8001cc2:	d51c      	bpl.n	8001cfe <HAL_UART_IRQHandler+0x86>
 8001cc4:	064e      	lsls	r6, r1, #25
 8001cc6:	d51a      	bpl.n	8001cfe <HAL_UART_IRQHandler+0x86>
   __ASM volatile ("ldrex %0, %1" : "=r" (result) : "Q" (*addr) );
 8001cc8:	e853 2f00 	ldrex	r2, [r3]
  * @retval None
  */
static void UART_EndTransmit_IT(UART_HandleTypeDef *huart)
{
  /* Disable the UART Transmit Complete Interrupt */
  ATOMIC_CLEAR_BIT(huart->Instance->CR1, USART_CR1_TCIE);
 8001ccc:	f022 0240 	bic.w	r2, r2, #64	@ 0x40
   __ASM volatile ("strex %0, %2, %1" : "=&r" (result), "=Q" (*addr) : "r" (value) );
 8001cd0:	e843 2100 	strex	r1, r2, [r3]
 8001cd4:	2900      	cmp	r1, #0
 8001cd6:	d1f7      	bne.n	8001cc8 <HAL_UART_IRQHandler+0x50>

  /* Tx process is ended, restore huart->gState to Ready */
  huart->gState = HAL_UART_STATE_READY;
 8001cd8:	2220      	movs	r2, #32

  /* Cleat TxISR function pointer */
  huart->TxISR = NULL;
 8001cda:	2300      	movs	r3, #0
  huart->gState = HAL_UART_STATE_READY;
 8001cdc:	f8c4 2088 	str.w	r2, [r4, #136]	@ 0x88
  huart->TxISR = NULL;
 8001ce0:	67a3      	str	r3, [r4, #120]	@ 0x78
#if (USE_HAL_UART_REGISTER_CALLBACKS == 1)
  /*Call registered Tx complete callback*/
  huart->TxCpltCallback(huart);
#else
  /*Call legacy weak Tx complete callback*/
  HAL_UART_TxCpltCallback(huart);
 8001ce2:	4620      	mov	r0, r4
 8001ce4:	f7ff ffba 	bl	8001c5c <HAL_UART_TxCpltCallback>
}
 8001ce8:	bd70      	pop	{r4, r5, r6, pc}
  if (((isrflags & USART_ISR_WUF) != 0U) && ((cr3its & USART_CR3_WUFIE) != 0U))
 8001cea:	0268      	lsls	r0, r5, #9
 8001cec:	d5df      	bpl.n	8001cae <HAL_UART_IRQHandler+0x36>
    __HAL_UART_CLEAR_FLAG(huart, UART_CLEAR_WUF);
 8001cee:	f44f 1280 	mov.w	r2, #1048576	@ 0x100000
    HAL_UARTEx_WakeupCallback(huart);
 8001cf2:	4620      	mov	r0, r4
    __HAL_UART_CLEAR_FLAG(huart, UART_CLEAR_WUF);
 8001cf4:	621a      	str	r2, [r3, #32]
}
 8001cf6:	e8bd 4070 	ldmia.w	sp!, {r4, r5, r6, lr}
    HAL_UARTEx_WakeupCallback(huart);
 8001cfa:	f000 befd 	b.w	8002af8 <HAL_UARTEx_WakeupCallback>
  if (((isrflags & USART_ISR_TXFE) != 0U) && ((cr1its & USART_CR1_TXFEIE) != 0U))
 8001cfe:	0215      	lsls	r5, r2, #8
 8001d00:	d502      	bpl.n	8001d08 <HAL_UART_IRQHandler+0x90>
 8001d02:	0048      	lsls	r0, r1, #1
 8001d04:	f100 80ff 	bmi.w	8001f06 <HAL_UART_IRQHandler+0x28e>
  if (((isrflags & USART_ISR_RXFF) != 0U) && ((cr1its & USART_CR1_RXFFIE) != 0U))
 8001d08:	01d3      	lsls	r3, r2, #7
 8001d0a:	d5ed      	bpl.n	8001ce8 <HAL_UART_IRQHandler+0x70>
 8001d0c:	2900      	cmp	r1, #0
 8001d0e:	daeb      	bge.n	8001ce8 <HAL_UART_IRQHandler+0x70>
    HAL_UARTEx_RxFifoFullCallback(huart);
 8001d10:	4620      	mov	r0, r4
}
 8001d12:	e8bd 4070 	ldmia.w	sp!, {r4, r5, r6, lr}
    HAL_UARTEx_RxFifoFullCallback(huart);
 8001d16:	f000 bef1 	b.w	8002afc <HAL_UARTEx_RxFifoFullCallback>
      && ((((cr3its & (USART_CR3_RXFTIE | USART_CR3_EIE)) != 0U)
 8001d1a:	48b7      	ldr	r0, [pc, #732]	@ (8001ff8 <HAL_UART_IRQHandler+0x380>)
 8001d1c:	ea05 0c00 	and.w	ip, r5, r0
           || ((cr1its & (USART_CR1_RXNEIE_RXFNEIE | USART_CR1_PEIE | USART_CR1_RTOIE)) != 0U))))
 8001d20:	48b6      	ldr	r0, [pc, #728]	@ (8001ffc <HAL_UART_IRQHandler+0x384>)
 8001d22:	4008      	ands	r0, r1
 8001d24:	ea50 000c 	orrs.w	r0, r0, ip
 8001d28:	d0bb      	beq.n	8001ca2 <HAL_UART_IRQHandler+0x2a>
    if (((isrflags & USART_ISR_PE) != 0U) && ((cr1its & USART_CR1_PEIE) != 0U))
 8001d2a:	07d6      	lsls	r6, r2, #31
 8001d2c:	d509      	bpl.n	8001d42 <HAL_UART_IRQHandler+0xca>
 8001d2e:	05c8      	lsls	r0, r1, #23
 8001d30:	d507      	bpl.n	8001d42 <HAL_UART_IRQHandler+0xca>
      __HAL_UART_CLEAR_FLAG(huart, UART_CLEAR_PEF);
 8001d32:	2001      	movs	r0, #1
 8001d34:	6218      	str	r0, [r3, #32]
      huart->ErrorCode |= HAL_UART_ERROR_PE;
 8001d36:	f8d4 0090 	ldr.w	r0, [r4, #144]	@ 0x90
 8001d3a:	f040 0001 	orr.w	r0, r0, #1
 8001d3e:	f8c4 0090 	str.w	r0, [r4, #144]	@ 0x90
    if (((isrflags & USART_ISR_FE) != 0U) && ((cr3its & USART_CR3_EIE) != 0U))
 8001d42:	0796      	lsls	r6, r2, #30
    if (((isrflags & USART_ISR_NE) != 0U) && ((cr3its & USART_CR3_EIE) != 0U))
 8001d44:	f002 0004 	and.w	r0, r2, #4
    if (((isrflags & USART_ISR_FE) != 0U) && ((cr3its & USART_CR3_EIE) != 0U))
 8001d48:	f140 80aa 	bpl.w	8001ea0 <HAL_UART_IRQHandler+0x228>
 8001d4c:	07ee      	lsls	r6, r5, #31
 8001d4e:	d510      	bpl.n	8001d72 <HAL_UART_IRQHandler+0xfa>
      __HAL_UART_CLEAR_FLAG(huart, UART_CLEAR_FEF);
 8001d50:	2602      	movs	r6, #2
 8001d52:	621e      	str	r6, [r3, #32]
      huart->ErrorCode |= HAL_UART_ERROR_FE;
 8001d54:	f8d4 6090 	ldr.w	r6, [r4, #144]	@ 0x90
 8001d58:	f046 0604 	orr.w	r6, r6, #4
 8001d5c:	f8c4 6090 	str.w	r6, [r4, #144]	@ 0x90
    if (((isrflags & USART_ISR_NE) != 0U) && ((cr3its & USART_CR3_EIE) != 0U))
 8001d60:	b138      	cbz	r0, 8001d72 <HAL_UART_IRQHandler+0xfa>
      __HAL_UART_CLEAR_FLAG(huart, UART_CLEAR_NEF);
 8001d62:	2004      	movs	r0, #4
 8001d64:	6218      	str	r0, [r3, #32]
      huart->ErrorCode |= HAL_UART_ERROR_NE;
 8001d66:	f8d4 0090 	ldr.w	r0, [r4, #144]	@ 0x90
 8001d6a:	f040 0002 	orr.w	r0, r0, #2
 8001d6e:	f8c4 0090 	str.w	r0, [r4, #144]	@ 0x90
    if (((isrflags & USART_ISR_ORE) != 0U)
 8001d72:	0710      	lsls	r0, r2, #28
 8001d74:	d50c      	bpl.n	8001d90 <HAL_UART_IRQHandler+0x118>
        && (((cr1its & USART_CR1_RXNEIE_RXFNEIE) != 0U) ||
 8001d76:	f001 0020 	and.w	r0, r1, #32
 8001d7a:	ea50 000c 	orrs.w	r0, r0, ip
 8001d7e:	d007      	beq.n	8001d90 <HAL_UART_IRQHandler+0x118>
      __HAL_UART_CLEAR_FLAG(huart, UART_CLEAR_OREF);
 8001d80:	2008      	movs	r0, #8
 8001d82:	6218      	str	r0, [r3, #32]
      huart->ErrorCode |= HAL_UART_ERROR_ORE;
 8001d84:	f8d4 0090 	ldr.w	r0, [r4, #144]	@ 0x90
 8001d88:	f040 0008 	orr.w	r0, r0, #8
 8001d8c:	f8c4 0090 	str.w	r0, [r4, #144]	@ 0x90
    if (((isrflags & USART_ISR_RTOF) != 0U) && ((cr1its & USART_CR1_RTOIE) != 0U))
 8001d90:	0516      	lsls	r6, r2, #20
 8001d92:	d50a      	bpl.n	8001daa <HAL_UART_IRQHandler+0x132>
 8001d94:	0148      	lsls	r0, r1, #5
 8001d96:	d508      	bpl.n	8001daa <HAL_UART_IRQHandler+0x132>
      __HAL_UART_CLEAR_FLAG(huart, UART_CLEAR_RTOF);
 8001d98:	f44f 6000 	mov.w	r0, #2048	@ 0x800
 8001d9c:	6218      	str	r0, [r3, #32]
      huart->ErrorCode |= HAL_UART_ERROR_RTO;
 8001d9e:	f8d4 0090 	ldr.w	r0, [r4, #144]	@ 0x90
 8001da2:	f040 0020 	orr.w	r0, r0, #32
 8001da6:	f8c4 0090 	str.w	r0, [r4, #144]	@ 0x90
    if (huart->ErrorCode != HAL_UART_ERROR_NONE)
 8001daa:	f8d4 0090 	ldr.w	r0, [r4, #144]	@ 0x90
 8001dae:	2800      	cmp	r0, #0
 8001db0:	d09a      	beq.n	8001ce8 <HAL_UART_IRQHandler+0x70>
      if (((isrflags & USART_ISR_RXNE_RXFNE) != 0U)
 8001db2:	0696      	lsls	r6, r2, #26
 8001db4:	d506      	bpl.n	8001dc4 <HAL_UART_IRQHandler+0x14c>
          && (((cr1its & USART_CR1_RXNEIE_RXFNEIE) != 0U)
 8001db6:	f001 0120 	and.w	r1, r1, #32
              || ((cr3its & USART_CR3_RXFTIE) != 0U)))
 8001dba:	f005 5580 	and.w	r5, r5, #268435456	@ 0x10000000
 8001dbe:	4329      	orrs	r1, r5
 8001dc0:	f040 8095 	bne.w	8001eee <HAL_UART_IRQHandler+0x276>
      errorcode = huart->ErrorCode;
 8001dc4:	f8d4 1090 	ldr.w	r1, [r4, #144]	@ 0x90
      if ((HAL_IS_BIT_SET(huart->Instance->CR3, USART_CR3_DMAR)) ||
 8001dc8:	689a      	ldr	r2, [r3, #8]
          ((errorcode & (HAL_UART_ERROR_RTO | HAL_UART_ERROR_ORE)) != 0U))
 8001dca:	f001 0128 	and.w	r1, r1, #40	@ 0x28
      if ((HAL_IS_BIT_SET(huart->Instance->CR3, USART_CR3_DMAR)) ||
 8001dce:	f002 0240 	and.w	r2, r2, #64	@ 0x40
 8001dd2:	ea52 0501 	orrs.w	r5, r2, r1
 8001dd6:	f000 80cc 	beq.w	8001f72 <HAL_UART_IRQHandler+0x2fa>
   __ASM volatile ("ldrex %0, %1" : "=r" (result) : "Q" (*addr) );
 8001dda:	e853 2f00 	ldrex	r2, [r3]
  ATOMIC_CLEAR_BIT(huart->Instance->CR1, (USART_CR1_RXNEIE_RXFNEIE | USART_CR1_PEIE));
 8001dde:	f422 7290 	bic.w	r2, r2, #288	@ 0x120
   __ASM volatile ("strex %0, %2, %1" : "=&r" (result), "=Q" (*addr) : "r" (value) );
 8001de2:	e843 2100 	strex	r1, r2, [r3]
 8001de6:	2900      	cmp	r1, #0
 8001de8:	d1f7      	bne.n	8001dda <HAL_UART_IRQHandler+0x162>
  ATOMIC_CLEAR_BIT(huart->Instance->CR3, (USART_CR3_EIE | USART_CR3_RXFTIE));
 8001dea:	4885      	ldr	r0, [pc, #532]	@ (8002000 <HAL_UART_IRQHandler+0x388>)
   __ASM volatile ("ldrex %0, %1" : "=r" (result) : "Q" (*addr) );
 8001dec:	f103 0208 	add.w	r2, r3, #8
 8001df0:	e852 2f00 	ldrex	r2, [r2]
 8001df4:	4002      	ands	r2, r0
   __ASM volatile ("strex %0, %2, %1" : "=&r" (result), "=Q" (*addr) : "r" (value) );
 8001df6:	f103 0508 	add.w	r5, r3, #8
 8001dfa:	e845 2100 	strex	r1, r2, [r5]
 8001dfe:	2900      	cmp	r1, #0
 8001e00:	d1f4      	bne.n	8001dec <HAL_UART_IRQHandler+0x174>
  if (huart->ReceptionType == HAL_UART_RECEPTION_TOIDLE)
 8001e02:	6ee2      	ldr	r2, [r4, #108]	@ 0x6c
 8001e04:	2a01      	cmp	r2, #1
 8001e06:	d061      	beq.n	8001ecc <HAL_UART_IRQHandler+0x254>
  huart->ReceptionType = HAL_UART_RECEPTION_STANDARD;
 8001e08:	2200      	movs	r2, #0
  huart->RxState = HAL_UART_STATE_READY;
 8001e0a:	2120      	movs	r1, #32
 8001e0c:	f8c4 108c 	str.w	r1, [r4, #140]	@ 0x8c
  huart->ReceptionType = HAL_UART_RECEPTION_STANDARD;
 8001e10:	66e2      	str	r2, [r4, #108]	@ 0x6c
        if (HAL_IS_BIT_SET(huart->Instance->CR3, USART_CR3_DMAR))
 8001e12:	6899      	ldr	r1, [r3, #8]
  huart->RxISR = NULL;
 8001e14:	6762      	str	r2, [r4, #116]	@ 0x74
        if (HAL_IS_BIT_SET(huart->Instance->CR3, USART_CR3_DMAR))
 8001e16:	064d      	lsls	r5, r1, #25
 8001e18:	d571      	bpl.n	8001efe <HAL_UART_IRQHandler+0x286>
   __ASM volatile ("ldrex %0, %1" : "=r" (result) : "Q" (*addr) );
 8001e1a:	f103 0208 	add.w	r2, r3, #8
 8001e1e:	e852 2f00 	ldrex	r2, [r2]
          ATOMIC_CLEAR_BIT(huart->Instance->CR3, USART_CR3_DMAR);
 8001e22:	f022 0240 	bic.w	r2, r2, #64	@ 0x40
   __ASM volatile ("strex %0, %2, %1" : "=&r" (result), "=Q" (*addr) : "r" (value) );
 8001e26:	f103 0008 	add.w	r0, r3, #8
 8001e2a:	e840 2100 	strex	r1, r2, [r0]
 8001e2e:	2900      	cmp	r1, #0
 8001e30:	d1f3      	bne.n	8001e1a <HAL_UART_IRQHandler+0x1a2>
          if (huart->hdmarx != NULL)
 8001e32:	f8d4 0080 	ldr.w	r0, [r4, #128]	@ 0x80
 8001e36:	2800      	cmp	r0, #0
 8001e38:	d061      	beq.n	8001efe <HAL_UART_IRQHandler+0x286>
            huart->hdmarx->XferAbortCallback = UART_DMAAbortOnError;
 8001e3a:	4b72      	ldr	r3, [pc, #456]	@ (8002004 <HAL_UART_IRQHandler+0x38c>)
 8001e3c:	6383      	str	r3, [r0, #56]	@ 0x38
            if (HAL_DMA_Abort_IT(huart->hdmarx) != HAL_OK)
 8001e3e:	f7fe ff35 	bl	8000cac <HAL_DMA_Abort_IT>
 8001e42:	2800      	cmp	r0, #0
 8001e44:	f43f af50 	beq.w	8001ce8 <HAL_UART_IRQHandler+0x70>
              huart->hdmarx->XferAbortCallback(huart->hdmarx);
 8001e48:	f8d4 0080 	ldr.w	r0, [r4, #128]	@ 0x80
 8001e4c:	6b83      	ldr	r3, [r0, #56]	@ 0x38
 8001e4e:	e032      	b.n	8001eb6 <HAL_UART_IRQHandler+0x23e>
      && ((isrflags & USART_ISR_IDLE) != 0U)
 8001e50:	06d0      	lsls	r0, r2, #27
 8001e52:	f57f af2a 	bpl.w	8001caa <HAL_UART_IRQHandler+0x32>
      && ((cr1its & USART_ISR_IDLE) != 0U))
 8001e56:	06ce      	lsls	r6, r1, #27
 8001e58:	f57f af27 	bpl.w	8001caa <HAL_UART_IRQHandler+0x32>
    __HAL_UART_CLEAR_FLAG(huart, UART_CLEAR_IDLEF);
 8001e5c:	2210      	movs	r2, #16
 8001e5e:	621a      	str	r2, [r3, #32]
    if (HAL_IS_BIT_SET(huart->Instance->CR3, USART_CR3_DMAR))
 8001e60:	6899      	ldr	r1, [r3, #8]
          && (nb_remaining_rx_data < huart->RxXferSize))
 8001e62:	f8b4 205c 	ldrh.w	r2, [r4, #92]	@ 0x5c
    if (HAL_IS_BIT_SET(huart->Instance->CR3, USART_CR3_DMAR))
 8001e66:	0648      	lsls	r0, r1, #25
 8001e68:	f140 8089 	bpl.w	8001f7e <HAL_UART_IRQHandler+0x306>
      uint16_t nb_remaining_rx_data = (uint16_t) __HAL_DMA_GET_COUNTER(huart->hdmarx);
 8001e6c:	f8d4 0080 	ldr.w	r0, [r4, #128]	@ 0x80
 8001e70:	6805      	ldr	r5, [r0, #0]
 8001e72:	6869      	ldr	r1, [r5, #4]
 8001e74:	b289      	uxth	r1, r1
      if ((nb_remaining_rx_data > 0U)
 8001e76:	2900      	cmp	r1, #0
 8001e78:	f000 80b6 	beq.w	8001fe8 <HAL_UART_IRQHandler+0x370>
          && (nb_remaining_rx_data < huart->RxXferSize))
 8001e7c:	4291      	cmp	r1, r2
 8001e7e:	f080 80b3 	bcs.w	8001fe8 <HAL_UART_IRQHandler+0x370>
        huart->RxXferCount = nb_remaining_rx_data;
 8001e82:	f8a4 105e 	strh.w	r1, [r4, #94]	@ 0x5e
        if (HAL_IS_BIT_CLR(huart->hdmarx->Instance->CCR, DMA_CCR_CIRC))
 8001e86:	6829      	ldr	r1, [r5, #0]
 8001e88:	0689      	lsls	r1, r1, #26
 8001e8a:	d541      	bpl.n	8001f10 <HAL_UART_IRQHandler+0x298>
        huart->RxEventType = HAL_UART_RXEVENT_IDLE;
 8001e8c:	2302      	movs	r3, #2
 8001e8e:	6723      	str	r3, [r4, #112]	@ 0x70
        HAL_UARTEx_RxEventCallback(huart, (huart->RxXferSize - huart->RxXferCount));
 8001e90:	f8b4 105e 	ldrh.w	r1, [r4, #94]	@ 0x5e
 8001e94:	1a51      	subs	r1, r2, r1
 8001e96:	4620      	mov	r0, r4
 8001e98:	b289      	uxth	r1, r1
 8001e9a:	f7ff feeb 	bl	8001c74 <HAL_UARTEx_RxEventCallback>
}
 8001e9e:	bd70      	pop	{r4, r5, r6, pc}
    if (((isrflags & USART_ISR_NE) != 0U) && ((cr3its & USART_CR3_EIE) != 0U))
 8001ea0:	2800      	cmp	r0, #0
 8001ea2:	f43f af66 	beq.w	8001d72 <HAL_UART_IRQHandler+0xfa>
 8001ea6:	07ee      	lsls	r6, r5, #31
 8001ea8:	f53f af5b 	bmi.w	8001d62 <HAL_UART_IRQHandler+0xea>
 8001eac:	e761      	b.n	8001d72 <HAL_UART_IRQHandler+0xfa>
      if (huart->RxISR != NULL)
 8001eae:	6f43      	ldr	r3, [r0, #116]	@ 0x74
 8001eb0:	2b00      	cmp	r3, #0
 8001eb2:	f43f af19 	beq.w	8001ce8 <HAL_UART_IRQHandler+0x70>
}
 8001eb6:	e8bd 4070 	ldmia.w	sp!, {r4, r5, r6, lr}
              huart->hdmarx->XferAbortCallback(huart->hdmarx);
 8001eba:	4718      	bx	r3
    if (huart->TxISR != NULL)
 8001ebc:	6fa3      	ldr	r3, [r4, #120]	@ 0x78
 8001ebe:	2b00      	cmp	r3, #0
 8001ec0:	f43f af12 	beq.w	8001ce8 <HAL_UART_IRQHandler+0x70>
      huart->TxISR(huart);
 8001ec4:	4620      	mov	r0, r4
}
 8001ec6:	e8bd 4070 	ldmia.w	sp!, {r4, r5, r6, lr}
      huart->TxISR(huart);
 8001eca:	4718      	bx	r3
   __ASM volatile ("ldrex %0, %1" : "=r" (result) : "Q" (*addr) );
 8001ecc:	e853 2f00 	ldrex	r2, [r3]
    ATOMIC_CLEAR_BIT(huart->Instance->CR1, USART_CR1_IDLEIE);
 8001ed0:	f022 0210 	bic.w	r2, r2, #16
   __ASM volatile ("strex %0, %2, %1" : "=&r" (result), "=Q" (*addr) : "r" (value) );
 8001ed4:	e843 2100 	strex	r1, r2, [r3]
 8001ed8:	2900      	cmp	r1, #0
 8001eda:	d095      	beq.n	8001e08 <HAL_UART_IRQHandler+0x190>
   __ASM volatile ("ldrex %0, %1" : "=r" (result) : "Q" (*addr) );
 8001edc:	e853 2f00 	ldrex	r2, [r3]
 8001ee0:	f022 0210 	bic.w	r2, r2, #16
   __ASM volatile ("strex %0, %2, %1" : "=&r" (result), "=Q" (*addr) : "r" (value) );
 8001ee4:	e843 2100 	strex	r1, r2, [r3]
 8001ee8:	2900      	cmp	r1, #0
 8001eea:	d1ef      	bne.n	8001ecc <HAL_UART_IRQHandler+0x254>
 8001eec:	e78c      	b.n	8001e08 <HAL_UART_IRQHandler+0x190>
        if (huart->RxISR != NULL)
 8001eee:	6f62      	ldr	r2, [r4, #116]	@ 0x74
 8001ef0:	2a00      	cmp	r2, #0
 8001ef2:	f43f af67 	beq.w	8001dc4 <HAL_UART_IRQHandler+0x14c>
          huart->RxISR(huart);
 8001ef6:	4620      	mov	r0, r4
 8001ef8:	4790      	blx	r2
      if ((HAL_IS_BIT_SET(huart->Instance->CR3, USART_CR3_DMAR)) ||
 8001efa:	6823      	ldr	r3, [r4, #0]
 8001efc:	e762      	b.n	8001dc4 <HAL_UART_IRQHandler+0x14c>
            HAL_UART_ErrorCallback(huart);
 8001efe:	4620      	mov	r0, r4
 8001f00:	f7ff feae 	bl	8001c60 <HAL_UART_ErrorCallback>
}
 8001f04:	bd70      	pop	{r4, r5, r6, pc}
    HAL_UARTEx_TxFifoEmptyCallback(huart);
 8001f06:	4620      	mov	r0, r4
}
 8001f08:	e8bd 4070 	ldmia.w	sp!, {r4, r5, r6, lr}
    HAL_UARTEx_TxFifoEmptyCallback(huart);
 8001f0c:	f000 bdf8 	b.w	8002b00 <HAL_UARTEx_TxFifoEmptyCallback>
   __ASM volatile ("ldrex %0, %1" : "=r" (result) : "Q" (*addr) );
 8001f10:	e853 2f00 	ldrex	r2, [r3]
          ATOMIC_CLEAR_BIT(huart->Instance->CR1, USART_CR1_PEIE);
 8001f14:	f422 7280 	bic.w	r2, r2, #256	@ 0x100
   __ASM volatile ("strex %0, %2, %1" : "=&r" (result), "=Q" (*addr) : "r" (value) );
 8001f18:	e843 2100 	strex	r1, r2, [r3]
 8001f1c:	2900      	cmp	r1, #0
 8001f1e:	d1f7      	bne.n	8001f10 <HAL_UART_IRQHandler+0x298>
   __ASM volatile ("ldrex %0, %1" : "=r" (result) : "Q" (*addr) );
 8001f20:	f103 0208 	add.w	r2, r3, #8
 8001f24:	e852 2f00 	ldrex	r2, [r2]
          ATOMIC_CLEAR_BIT(huart->Instance->CR3, USART_CR3_EIE);
 8001f28:	f022 0201 	bic.w	r2, r2, #1
   __ASM volatile ("strex %0, %2, %1" : "=&r" (result), "=Q" (*addr) : "r" (value) );
 8001f2c:	f103 0508 	add.w	r5, r3, #8
 8001f30:	e845 2100 	strex	r1, r2, [r5]
 8001f34:	2900      	cmp	r1, #0
 8001f36:	d1f3      	bne.n	8001f20 <HAL_UART_IRQHandler+0x2a8>
   __ASM volatile ("ldrex %0, %1" : "=r" (result) : "Q" (*addr) );
 8001f38:	f103 0208 	add.w	r2, r3, #8
 8001f3c:	e852 2f00 	ldrex	r2, [r2]
          ATOMIC_CLEAR_BIT(huart->Instance->CR3, USART_CR3_DMAR);
 8001f40:	f022 0240 	bic.w	r2, r2, #64	@ 0x40
   __ASM volatile ("strex %0, %2, %1" : "=&r" (result), "=Q" (*addr) : "r" (value) );
 8001f44:	f103 0508 	add.w	r5, r3, #8
 8001f48:	e845 2100 	strex	r1, r2, [r5]
 8001f4c:	2900      	cmp	r1, #0
 8001f4e:	d1f3      	bne.n	8001f38 <HAL_UART_IRQHandler+0x2c0>
          huart->RxState = HAL_UART_STATE_READY;
 8001f50:	2220      	movs	r2, #32
 8001f52:	f8c4 208c 	str.w	r2, [r4, #140]	@ 0x8c
          huart->ReceptionType = HAL_UART_RECEPTION_STANDARD;
 8001f56:	66e1      	str	r1, [r4, #108]	@ 0x6c
   __ASM volatile ("ldrex %0, %1" : "=r" (result) : "Q" (*addr) );
 8001f58:	e853 2f00 	ldrex	r2, [r3]
          ATOMIC_CLEAR_BIT(huart->Instance->CR1, USART_CR1_IDLEIE);
 8001f5c:	f022 0210 	bic.w	r2, r2, #16
   __ASM volatile ("strex %0, %2, %1" : "=&r" (result), "=Q" (*addr) : "r" (value) );
 8001f60:	e843 2100 	strex	r1, r2, [r3]
 8001f64:	2900      	cmp	r1, #0
 8001f66:	d1f7      	bne.n	8001f58 <HAL_UART_IRQHandler+0x2e0>
          (void)HAL_DMA_Abort(huart->hdmarx);
 8001f68:	f7fe fe66 	bl	8000c38 <HAL_DMA_Abort>
        HAL_UARTEx_RxEventCallback(huart, (huart->RxXferSize - huart->RxXferCount));
 8001f6c:	f8b4 205c 	ldrh.w	r2, [r4, #92]	@ 0x5c
 8001f70:	e78c      	b.n	8001e8c <HAL_UART_IRQHandler+0x214>
        HAL_UART_ErrorCallback(huart);
 8001f72:	4620      	mov	r0, r4
 8001f74:	f7ff fe74 	bl	8001c60 <HAL_UART_ErrorCallback>
        huart->ErrorCode = HAL_UART_ERROR_NONE;
 8001f78:	f8c4 5090 	str.w	r5, [r4, #144]	@ 0x90
}
 8001f7c:	bd70      	pop	{r4, r5, r6, pc}
      uint16_t nb_rx_data = huart->RxXferSize - huart->RxXferCount;
 8001f7e:	f8b4 005e 	ldrh.w	r0, [r4, #94]	@ 0x5e
      if ((huart->RxXferCount > 0U)
 8001f82:	f8b4 105e 	ldrh.w	r1, [r4, #94]	@ 0x5e
 8001f86:	b289      	uxth	r1, r1
      uint16_t nb_rx_data = huart->RxXferSize - huart->RxXferCount;
 8001f88:	b280      	uxth	r0, r0
      if ((huart->RxXferCount > 0U)
 8001f8a:	2900      	cmp	r1, #0
 8001f8c:	f43f aeac 	beq.w	8001ce8 <HAL_UART_IRQHandler+0x70>
      uint16_t nb_rx_data = huart->RxXferSize - huart->RxXferCount;
 8001f90:	1a12      	subs	r2, r2, r0
 8001f92:	b291      	uxth	r1, r2
          && (nb_rx_data > 0U))
 8001f94:	2900      	cmp	r1, #0
 8001f96:	f43f aea7 	beq.w	8001ce8 <HAL_UART_IRQHandler+0x70>
   __ASM volatile ("ldrex %0, %1" : "=r" (result) : "Q" (*addr) );
 8001f9a:	e853 2f00 	ldrex	r2, [r3]
        ATOMIC_CLEAR_BIT(huart->Instance->CR1, (USART_CR1_RXNEIE_RXFNEIE | USART_CR1_PEIE));
 8001f9e:	f422 7290 	bic.w	r2, r2, #288	@ 0x120
   __ASM volatile ("strex %0, %2, %1" : "=&r" (result), "=Q" (*addr) : "r" (value) );
 8001fa2:	e843 2000 	strex	r0, r2, [r3]
 8001fa6:	2800      	cmp	r0, #0
 8001fa8:	d1f7      	bne.n	8001f9a <HAL_UART_IRQHandler+0x322>
        ATOMIC_CLEAR_BIT(huart->Instance->CR3, (USART_CR3_EIE | USART_CR3_RXFTIE));
 8001faa:	4d15      	ldr	r5, [pc, #84]	@ (8002000 <HAL_UART_IRQHandler+0x388>)
   __ASM volatile ("ldrex %0, %1" : "=r" (result) : "Q" (*addr) );
 8001fac:	f103 0208 	add.w	r2, r3, #8
 8001fb0:	e852 2f00 	ldrex	r2, [r2]
 8001fb4:	402a      	ands	r2, r5
   __ASM volatile ("strex %0, %2, %1" : "=&r" (result), "=Q" (*addr) : "r" (value) );
 8001fb6:	f103 0608 	add.w	r6, r3, #8
 8001fba:	e846 2000 	strex	r0, r2, [r6]
 8001fbe:	2800      	cmp	r0, #0
 8001fc0:	d1f4      	bne.n	8001fac <HAL_UART_IRQHandler+0x334>
        huart->RxState = HAL_UART_STATE_READY;
 8001fc2:	2220      	movs	r2, #32
 8001fc4:	f8c4 208c 	str.w	r2, [r4, #140]	@ 0x8c
        huart->RxISR = NULL;
 8001fc8:	6760      	str	r0, [r4, #116]	@ 0x74
        huart->ReceptionType = HAL_UART_RECEPTION_STANDARD;
 8001fca:	66e0      	str	r0, [r4, #108]	@ 0x6c
   __ASM volatile ("ldrex %0, %1" : "=r" (result) : "Q" (*addr) );
 8001fcc:	e853 2f00 	ldrex	r2, [r3]
        ATOMIC_CLEAR_BIT(huart->Instance->CR1, USART_CR1_IDLEIE);
 8001fd0:	f022 0210 	bic.w	r2, r2, #16
   __ASM volatile ("strex %0, %2, %1" : "=&r" (result), "=Q" (*addr) : "r" (value) );
 8001fd4:	e843 2000 	strex	r0, r2, [r3]
 8001fd8:	2800      	cmp	r0, #0
 8001fda:	d1f7      	bne.n	8001fcc <HAL_UART_IRQHandler+0x354>
        huart->RxEventType = HAL_UART_RXEVENT_IDLE;
 8001fdc:	2302      	movs	r3, #2
 8001fde:	6723      	str	r3, [r4, #112]	@ 0x70
        HAL_UARTEx_RxEventCallback(huart, nb_rx_data);
 8001fe0:	4620      	mov	r0, r4
 8001fe2:	f7ff fe47 	bl	8001c74 <HAL_UARTEx_RxEventCallback>
}
 8001fe6:	bd70      	pop	{r4, r5, r6, pc}
        if (nb_remaining_rx_data == huart->RxXferSize)
 8001fe8:	4291      	cmp	r1, r2
 8001fea:	f47f ae7d 	bne.w	8001ce8 <HAL_UART_IRQHandler+0x70>
          if (HAL_IS_BIT_SET(huart->hdmarx->Instance->CCR, DMA_CCR_CIRC))
 8001fee:	682b      	ldr	r3, [r5, #0]
 8001ff0:	069b      	lsls	r3, r3, #26
 8001ff2:	d4f3      	bmi.n	8001fdc <HAL_UART_IRQHandler+0x364>
}
 8001ff4:	bd70      	pop	{r4, r5, r6, pc}
 8001ff6:	bf00      	nop
 8001ff8:	10000001 	.word	0x10000001
 8001ffc:	04000120 	.word	0x04000120
 8002000:	effffffe 	.word	0xeffffffe
 8002004:	08001c65 	.word	0x08001c65

08002008 <UART_RxISR_16BIT.part.0>:
/**
  * @brief RX interrupt handler for 7 or 8 bits data word length .
  * @param huart UART handle.
  * @retval None
  */
static void UART_RxISR_8BIT(UART_HandleTypeDef *huart)
 8002008:	b510      	push	{r4, lr}
 800200a:	6803      	ldr	r3, [r0, #0]
   __ASM volatile ("ldrex %0, %1" : "=r" (result) : "Q" (*addr) );
 800200c:	e853 2f00 	ldrex	r2, [r3]
    huart->RxXferCount--;

    if (huart->RxXferCount == 0U)
    {
      /* Disable the UART Parity Error Interrupt and RXNE interrupts */
      ATOMIC_CLEAR_BIT(huart->Instance->CR1, (USART_CR1_RXNEIE_RXFNEIE | USART_CR1_PEIE));
 8002010:	f422 7290 	bic.w	r2, r2, #288	@ 0x120
   __ASM volatile ("strex %0, %2, %1" : "=&r" (result), "=Q" (*addr) : "r" (value) );
 8002014:	e843 2100 	strex	r1, r2, [r3]
 8002018:	2900      	cmp	r1, #0
 800201a:	d1f7      	bne.n	800200c <UART_RxISR_16BIT.part.0+0x4>
   __ASM volatile ("ldrex %0, %1" : "=r" (result) : "Q" (*addr) );
 800201c:	f103 0208 	add.w	r2, r3, #8
 8002020:	e852 2f00 	ldrex	r2, [r2]

      /* Disable the UART Error Interrupt: (Frame error, noise error, overrun error) */
      ATOMIC_CLEAR_BIT(huart->Instance->CR3, USART_CR3_EIE);
 8002024:	f022 0201 	bic.w	r2, r2, #1
   __ASM volatile ("strex %0, %2, %1" : "=&r" (result), "=Q" (*addr) : "r" (value) );
 8002028:	f103 0408 	add.w	r4, r3, #8
 800202c:	e844 2100 	strex	r1, r2, [r4]
 8002030:	2900      	cmp	r1, #0
 8002032:	d1f3      	bne.n	800201c <UART_RxISR_16BIT.part.0+0x14>
      huart->RxISR = NULL;

      /* Initialize type of RxEvent to Transfer Complete */
      huart->RxEventType = HAL_UART_RXEVENT_TC;

      if (!(IS_LPUART_INSTANCE(huart->Instance)))
 8002034:	4a1a      	ldr	r2, [pc, #104]	@ (80020a0 <UART_RxISR_16BIT.part.0+0x98>)
      huart->RxISR = NULL;
 8002036:	6741      	str	r1, [r0, #116]	@ 0x74
      huart->RxState = HAL_UART_STATE_READY;
 8002038:	2420      	movs	r4, #32
      if (!(IS_LPUART_INSTANCE(huart->Instance)))
 800203a:	4293      	cmp	r3, r2
      huart->RxState = HAL_UART_STATE_READY;
 800203c:	f8c0 408c 	str.w	r4, [r0, #140]	@ 0x8c
      huart->RxEventType = HAL_UART_RXEVENT_TC;
 8002040:	6701      	str	r1, [r0, #112]	@ 0x70
      if (!(IS_LPUART_INSTANCE(huart->Instance)))
 8002042:	d002      	beq.n	800204a <UART_RxISR_16BIT.part.0+0x42>
      {
        /* Check that USART RTOEN bit is set */
        if (READ_BIT(huart->Instance->CR2, USART_CR2_RTOEN) != 0U)
 8002044:	685a      	ldr	r2, [r3, #4]
 8002046:	0211      	lsls	r1, r2, #8
 8002048:	d416      	bmi.n	8002078 <UART_RxISR_16BIT.part.0+0x70>
        }
      }

      /* Check current reception Mode :
         If Reception till IDLE event has been selected : */
      if (huart->ReceptionType == HAL_UART_RECEPTION_TOIDLE)
 800204a:	6ec2      	ldr	r2, [r0, #108]	@ 0x6c
 800204c:	2a01      	cmp	r2, #1
 800204e:	d124      	bne.n	800209a <UART_RxISR_16BIT.part.0+0x92>
      {
        /* Set reception type to Standard */
        huart->ReceptionType = HAL_UART_RECEPTION_STANDARD;
 8002050:	2200      	movs	r2, #0
 8002052:	66c2      	str	r2, [r0, #108]	@ 0x6c
   __ASM volatile ("ldrex %0, %1" : "=r" (result) : "Q" (*addr) );
 8002054:	e853 2f00 	ldrex	r2, [r3]

        /* Disable IDLE interrupt */
        ATOMIC_CLEAR_BIT(huart->Instance->CR1, USART_CR1_IDLEIE);
 8002058:	f022 0210 	bic.w	r2, r2, #16
   __ASM volatile ("strex %0, %2, %1" : "=&r" (result), "=Q" (*addr) : "r" (value) );
 800205c:	e843 2100 	strex	r1, r2, [r3]
 8002060:	2900      	cmp	r1, #0
 8002062:	d1f7      	bne.n	8002054 <UART_RxISR_16BIT.part.0+0x4c>

        if (__HAL_UART_GET_FLAG(huart, UART_FLAG_IDLE) == SET)
 8002064:	69da      	ldr	r2, [r3, #28]
#if (USE_HAL_UART_REGISTER_CALLBACKS == 1)
        /*Call registered Rx Event callback*/
        huart->RxEventCallback(huart, huart->RxXferSize);
#else
        /*Call legacy weak Rx Event callback*/
        HAL_UARTEx_RxEventCallback(huart, huart->RxXferSize);
 8002066:	f8b0 105c 	ldrh.w	r1, [r0, #92]	@ 0x5c
        if (__HAL_UART_GET_FLAG(huart, UART_FLAG_IDLE) == SET)
 800206a:	06d2      	lsls	r2, r2, #27
          __HAL_UART_CLEAR_FLAG(huart, UART_CLEAR_IDLEF);
 800206c:	bf44      	itt	mi
 800206e:	2210      	movmi	r2, #16
 8002070:	621a      	strmi	r2, [r3, #32]
        HAL_UARTEx_RxEventCallback(huart, huart->RxXferSize);
 8002072:	f7ff fdff 	bl	8001c74 <HAL_UARTEx_RxEventCallback>
  else
  {
    /* Clear RXNE interrupt flag */
    __HAL_UART_SEND_REQ(huart, UART_RXDATA_FLUSH_REQUEST);
  }
}
 8002076:	bd10      	pop	{r4, pc}
   __ASM volatile ("ldrex %0, %1" : "=r" (result) : "Q" (*addr) );
 8002078:	e853 2f00 	ldrex	r2, [r3]
          ATOMIC_CLEAR_BIT(huart->Instance->CR1, USART_CR1_RTOIE);
 800207c:	f022 6280 	bic.w	r2, r2, #67108864	@ 0x4000000
   __ASM volatile ("strex %0, %2, %1" : "=&r" (result), "=Q" (*addr) : "r" (value) );
 8002080:	e843 2100 	strex	r1, r2, [r3]
 8002084:	2900      	cmp	r1, #0
 8002086:	d0e0      	beq.n	800204a <UART_RxISR_16BIT.part.0+0x42>
   __ASM volatile ("ldrex %0, %1" : "=r" (result) : "Q" (*addr) );
 8002088:	e853 2f00 	ldrex	r2, [r3]
 800208c:	f022 6280 	bic.w	r2, r2, #67108864	@ 0x4000000
   __ASM volatile ("strex %0, %2, %1" : "=&r" (result), "=Q" (*addr) : "r" (value) );
 8002090:	e843 2100 	strex	r1, r2, [r3]
 8002094:	2900      	cmp	r1, #0
 8002096:	d1ef      	bne.n	8002078 <UART_RxISR_16BIT.part.0+0x70>
 8002098:	e7d7      	b.n	800204a <UART_RxISR_16BIT.part.0+0x42>
        HAL_UART_RxCpltCallback(huart);
 800209a:	f7fe fa35 	bl	8000508 <HAL_UART_RxCpltCallback>
}
 800209e:	bd10      	pop	{r4, pc}
 80020a0:	40008000 	.word	0x40008000

080020a4 <UART_RxISR_16BIT>:
  *         interruptions have been enabled by HAL_UART_Receive_IT()
  * @param huart UART handle.
  * @retval None
  */
static void UART_RxISR_16BIT(UART_HandleTypeDef *huart)
{
 80020a4:	b410      	push	{r4}
  uint16_t *tmp;
  uint16_t uhMask = huart->Mask;
  uint16_t  uhdata;

  /* Check that a Rx process is ongoing */
  if (huart->RxState == HAL_UART_STATE_BUSY_RX)
 80020a6:	f8d0 408c 	ldr.w	r4, [r0, #140]	@ 0x8c
  uint16_t uhMask = huart->Mask;
 80020aa:	f8b0 1060 	ldrh.w	r1, [r0, #96]	@ 0x60
  {
    uhdata = (uint16_t) READ_REG(huart->Instance->RDR);
 80020ae:	6802      	ldr	r2, [r0, #0]
  if (huart->RxState == HAL_UART_STATE_BUSY_RX)
 80020b0:	2c22      	cmp	r4, #34	@ 0x22
 80020b2:	d006      	beq.n	80020c2 <UART_RxISR_16BIT+0x1e>
    }
  }
  else
  {
    /* Clear RXNE interrupt flag */
    __HAL_UART_SEND_REQ(huart, UART_RXDATA_FLUSH_REQUEST);
 80020b4:	6993      	ldr	r3, [r2, #24]
 80020b6:	f043 0308 	orr.w	r3, r3, #8
 80020ba:	6193      	str	r3, [r2, #24]
  }
}
 80020bc:	f85d 4b04 	ldr.w	r4, [sp], #4
 80020c0:	4770      	bx	lr
    uhdata = (uint16_t) READ_REG(huart->Instance->RDR);
 80020c2:	6a52      	ldr	r2, [r2, #36]	@ 0x24
    *tmp = (uint16_t)(uhdata & uhMask);
 80020c4:	6d84      	ldr	r4, [r0, #88]	@ 0x58
 80020c6:	4011      	ands	r1, r2
 80020c8:	f824 1b02 	strh.w	r1, [r4], #2
    huart->RxXferCount--;
 80020cc:	f8b0 205e 	ldrh.w	r2, [r0, #94]	@ 0x5e
    huart->pRxBuffPtr += 2U;
 80020d0:	6584      	str	r4, [r0, #88]	@ 0x58
    huart->RxXferCount--;
 80020d2:	3a01      	subs	r2, #1
 80020d4:	b292      	uxth	r2, r2
 80020d6:	f8a0 205e 	strh.w	r2, [r0, #94]	@ 0x5e
    if (huart->RxXferCount == 0U)
 80020da:	f8b0 305e 	ldrh.w	r3, [r0, #94]	@ 0x5e
 80020de:	b29b      	uxth	r3, r3
 80020e0:	2b00      	cmp	r3, #0
 80020e2:	d1eb      	bne.n	80020bc <UART_RxISR_16BIT+0x18>
}
 80020e4:	f85d 4b04 	ldr.w	r4, [sp], #4
 80020e8:	f7ff bf8e 	b.w	8002008 <UART_RxISR_16BIT.part.0>

080020ec <UART_RxISR_8BIT>:
  if (huart->RxState == HAL_UART_STATE_BUSY_RX)
 80020ec:	f8d0 108c 	ldr.w	r1, [r0, #140]	@ 0x8c
  uint16_t uhMask = huart->Mask;
 80020f0:	f8b0 c060 	ldrh.w	ip, [r0, #96]	@ 0x60
    uhdata = (uint16_t) READ_REG(huart->Instance->RDR);
 80020f4:	6802      	ldr	r2, [r0, #0]
  if (huart->RxState == HAL_UART_STATE_BUSY_RX)
 80020f6:	2922      	cmp	r1, #34	@ 0x22
 80020f8:	d004      	beq.n	8002104 <UART_RxISR_8BIT+0x18>
    __HAL_UART_SEND_REQ(huart, UART_RXDATA_FLUSH_REQUEST);
 80020fa:	6993      	ldr	r3, [r2, #24]
 80020fc:	f043 0308 	orr.w	r3, r3, #8
 8002100:	6193      	str	r3, [r2, #24]
}
 8002102:	4770      	bx	lr
    uhdata = (uint16_t) READ_REG(huart->Instance->RDR);
 8002104:	6a52      	ldr	r2, [r2, #36]	@ 0x24
    *huart->pRxBuffPtr = (uint8_t)(uhdata & (uint8_t)uhMask);
 8002106:	6d81      	ldr	r1, [r0, #88]	@ 0x58
 8002108:	ea02 020c 	and.w	r2, r2, ip
 800210c:	700a      	strb	r2, [r1, #0]
    huart->RxXferCount--;
 800210e:	f8b0 205e 	ldrh.w	r2, [r0, #94]	@ 0x5e
    huart->pRxBuffPtr++;
 8002112:	6d81      	ldr	r1, [r0, #88]	@ 0x58
    huart->RxXferCount--;
 8002114:	3a01      	subs	r2, #1
 8002116:	b292      	uxth	r2, r2
 8002118:	f8a0 205e 	strh.w	r2, [r0, #94]	@ 0x5e
    if (huart->RxXferCount == 0U)
 800211c:	f8b0 205e 	ldrh.w	r2, [r0, #94]	@ 0x5e
    huart->pRxBuffPtr++;
 8002120:	3101      	adds	r1, #1
    if (huart->RxXferCount == 0U)
 8002122:	b292      	uxth	r2, r2
    huart->pRxBuffPtr++;
 8002124:	6581      	str	r1, [r0, #88]	@ 0x58
    if (huart->RxXferCount == 0U)
 8002126:	2a00      	cmp	r2, #0
 8002128:	d1eb      	bne.n	8002102 <UART_RxISR_8BIT+0x16>
 800212a:	f7ff bf6d 	b.w	8002008 <UART_RxISR_16BIT.part.0>
 800212e:	bf00      	nop

08002130 <UART_RxISR_8BIT_FIFOEN>:
  *         interruptions have been enabled by HAL_UART_Receive_IT()
  * @param huart UART handle.
  * @retval None
  */
static void UART_RxISR_8BIT_FIFOEN(UART_HandleTypeDef *huart)
{
 8002130:	e92d 4ff8 	stmdb	sp!, {r3, r4, r5, r6, r7, r8, r9, sl, fp, lr}
  uint16_t  uhMask = huart->Mask;
  uint16_t  uhdata;
  uint16_t  nb_rx_data;
  uint16_t  rxdatacount;
  uint32_t  isrflags = READ_REG(huart->Instance->ISR);
 8002134:	6803      	ldr	r3, [r0, #0]
  uint16_t  uhMask = huart->Mask;
 8002136:	f8b0 8060 	ldrh.w	r8, [r0, #96]	@ 0x60
  uint32_t  isrflags = READ_REG(huart->Instance->ISR);
 800213a:	69de      	ldr	r6, [r3, #28]
{
 800213c:	4604      	mov	r4, r0
  uint32_t  cr1its   = READ_REG(huart->Instance->CR1);
 800213e:	6818      	ldr	r0, [r3, #0]
  uint32_t  cr3its   = READ_REG(huart->Instance->CR3);
 8002140:	6899      	ldr	r1, [r3, #8]

  /* Check that a Rx process is ongoing */
  if (huart->RxState == HAL_UART_STATE_BUSY_RX)
 8002142:	f8d4 208c 	ldr.w	r2, [r4, #140]	@ 0x8c
 8002146:	2a22      	cmp	r2, #34	@ 0x22
 8002148:	d005      	beq.n	8002156 <UART_RxISR_8BIT_FIFOEN+0x26>
    }
  }
  else
  {
    /* Clear RXNE interrupt flag */
    __HAL_UART_SEND_REQ(huart, UART_RXDATA_FLUSH_REQUEST);
 800214a:	699a      	ldr	r2, [r3, #24]
 800214c:	f042 0208 	orr.w	r2, r2, #8
 8002150:	619a      	str	r2, [r3, #24]
  }
}
 8002152:	e8bd 8ff8 	ldmia.w	sp!, {r3, r4, r5, r6, r7, r8, r9, sl, fp, pc}
    while ((nb_rx_data > 0U) && ((isrflags & USART_ISR_RXNE_RXFNE) != 0U))
 8002156:	f8b4 3068 	ldrh.w	r3, [r4, #104]	@ 0x68
        if (((isrflags & USART_ISR_PE) != 0U) && ((cr1its & USART_CR1_PEIE) != 0U))
 800215a:	f400 7a80 	and.w	sl, r0, #256	@ 0x100
        if (((isrflags & USART_ISR_NE) != 0U) && ((cr3its & USART_CR3_EIE) != 0U))
 800215e:	f001 0901 	and.w	r9, r1, #1
    while ((nb_rx_data > 0U) && ((isrflags & USART_ISR_RXNE_RXFNE) != 0U))
 8002162:	2b00      	cmp	r3, #0
 8002164:	d07c      	beq.n	8002260 <UART_RxISR_8BIT_FIFOEN+0x130>
          huart->ErrorCode = HAL_UART_ERROR_NONE;
 8002166:	2500      	movs	r5, #0
          __HAL_UART_CLEAR_FLAG(huart, UART_CLEAR_NEF);
 8002168:	2704      	movs	r7, #4
          __HAL_UART_CLEAR_FLAG(huart, UART_CLEAR_FEF);
 800216a:	f04f 0b02 	mov.w	fp, #2
    while ((nb_rx_data > 0U) && ((isrflags & USART_ISR_RXNE_RXFNE) != 0U))
 800216e:	06b3      	lsls	r3, r6, #26
 8002170:	d576      	bpl.n	8002260 <UART_RxISR_8BIT_FIFOEN+0x130>
      uhdata = (uint16_t) READ_REG(huart->Instance->RDR);
 8002172:	6822      	ldr	r2, [r4, #0]
      *huart->pRxBuffPtr = (uint8_t)(uhdata & (uint8_t)uhMask);
 8002174:	6da3      	ldr	r3, [r4, #88]	@ 0x58
      uhdata = (uint16_t) READ_REG(huart->Instance->RDR);
 8002176:	6a52      	ldr	r2, [r2, #36]	@ 0x24
      *huart->pRxBuffPtr = (uint8_t)(uhdata & (uint8_t)uhMask);
 8002178:	ea02 0208 	and.w	r2, r2, r8
 800217c:	701a      	strb	r2, [r3, #0]
      huart->RxXferCount--;
 800217e:	f8b4 105e 	ldrh.w	r1, [r4, #94]	@ 0x5e
      isrflags = READ_REG(huart->Instance->ISR);
 8002182:	6823      	ldr	r3, [r4, #0]
      huart->pRxBuffPtr++;
 8002184:	6da2      	ldr	r2, [r4, #88]	@ 0x58
      huart->RxXferCount--;
 8002186:	3901      	subs	r1, #1
 8002188:	b289      	uxth	r1, r1
 800218a:	f8a4 105e 	strh.w	r1, [r4, #94]	@ 0x5e
      isrflags = READ_REG(huart->Instance->ISR);
 800218e:	69de      	ldr	r6, [r3, #28]
      huart->pRxBuffPtr++;
 8002190:	3201      	adds	r2, #1
      if ((isrflags & (USART_ISR_PE | USART_ISR_FE | USART_ISR_NE)) != 0U)
 8002192:	0771      	lsls	r1, r6, #29
      huart->pRxBuffPtr++;
 8002194:	65a2      	str	r2, [r4, #88]	@ 0x58
      if ((isrflags & (USART_ISR_PE | USART_ISR_FE | USART_ISR_NE)) != 0U)
 8002196:	d027      	beq.n	80021e8 <UART_RxISR_8BIT_FIFOEN+0xb8>
        if (((isrflags & USART_ISR_PE) != 0U) && ((cr1its & USART_CR1_PEIE) != 0U))
 8002198:	07f2      	lsls	r2, r6, #31
 800219a:	d50a      	bpl.n	80021b2 <UART_RxISR_8BIT_FIFOEN+0x82>
 800219c:	f1ba 0f00 	cmp.w	sl, #0
 80021a0:	d007      	beq.n	80021b2 <UART_RxISR_8BIT_FIFOEN+0x82>
          __HAL_UART_CLEAR_FLAG(huart, UART_CLEAR_PEF);
 80021a2:	2201      	movs	r2, #1
 80021a4:	621a      	str	r2, [r3, #32]
          huart->ErrorCode |= HAL_UART_ERROR_PE;
 80021a6:	f8d4 2090 	ldr.w	r2, [r4, #144]	@ 0x90
 80021aa:	f042 0201 	orr.w	r2, r2, #1
 80021ae:	f8c4 2090 	str.w	r2, [r4, #144]	@ 0x90
        if (((isrflags & USART_ISR_FE) != 0U) && ((cr3its & USART_CR3_EIE) != 0U))
 80021b2:	07b0      	lsls	r0, r6, #30
        if (((isrflags & USART_ISR_NE) != 0U) && ((cr3its & USART_CR3_EIE) != 0U))
 80021b4:	f006 0204 	and.w	r2, r6, #4
        if (((isrflags & USART_ISR_FE) != 0U) && ((cr3its & USART_CR3_EIE) != 0U))
 80021b8:	d575      	bpl.n	80022a6 <UART_RxISR_8BIT_FIFOEN+0x176>
 80021ba:	f1b9 0f00 	cmp.w	r9, #0
 80021be:	d00f      	beq.n	80021e0 <UART_RxISR_8BIT_FIFOEN+0xb0>
          __HAL_UART_CLEAR_FLAG(huart, UART_CLEAR_FEF);
 80021c0:	f8c3 b020 	str.w	fp, [r3, #32]
          huart->ErrorCode |= HAL_UART_ERROR_FE;
 80021c4:	f8d4 1090 	ldr.w	r1, [r4, #144]	@ 0x90
 80021c8:	f041 0104 	orr.w	r1, r1, #4
 80021cc:	f8c4 1090 	str.w	r1, [r4, #144]	@ 0x90
        if (((isrflags & USART_ISR_NE) != 0U) && ((cr3its & USART_CR3_EIE) != 0U))
 80021d0:	b132      	cbz	r2, 80021e0 <UART_RxISR_8BIT_FIFOEN+0xb0>
          __HAL_UART_CLEAR_FLAG(huart, UART_CLEAR_NEF);
 80021d2:	621f      	str	r7, [r3, #32]
          huart->ErrorCode |= HAL_UART_ERROR_NE;
 80021d4:	f8d4 3090 	ldr.w	r3, [r4, #144]	@ 0x90
 80021d8:	f043 0302 	orr.w	r3, r3, #2
 80021dc:	f8c4 3090 	str.w	r3, [r4, #144]	@ 0x90
        if (huart->ErrorCode != HAL_UART_ERROR_NONE)
 80021e0:	f8d4 3090 	ldr.w	r3, [r4, #144]	@ 0x90
 80021e4:	2b00      	cmp	r3, #0
 80021e6:	d167      	bne.n	80022b8 <UART_RxISR_8BIT_FIFOEN+0x188>
      if (huart->RxXferCount == 0U)
 80021e8:	f8b4 305e 	ldrh.w	r3, [r4, #94]	@ 0x5e
 80021ec:	b29b      	uxth	r3, r3
 80021ee:	2b00      	cmp	r3, #0
 80021f0:	d1bd      	bne.n	800216e <UART_RxISR_8BIT_FIFOEN+0x3e>
 80021f2:	6823      	ldr	r3, [r4, #0]
   __ASM volatile ("ldrex %0, %1" : "=r" (result) : "Q" (*addr) );
 80021f4:	e853 2f00 	ldrex	r2, [r3]
        ATOMIC_CLEAR_BIT(huart->Instance->CR1, USART_CR1_PEIE);
 80021f8:	f422 7280 	bic.w	r2, r2, #256	@ 0x100
   __ASM volatile ("strex %0, %2, %1" : "=&r" (result), "=Q" (*addr) : "r" (value) );
 80021fc:	e843 2100 	strex	r1, r2, [r3]
 8002200:	2900      	cmp	r1, #0
 8002202:	d1f7      	bne.n	80021f4 <UART_RxISR_8BIT_FIFOEN+0xc4>
        ATOMIC_CLEAR_BIT(huart->Instance->CR3, (USART_CR3_EIE | USART_CR3_RXFTIE));
 8002204:	483a      	ldr	r0, [pc, #232]	@ (80022f0 <UART_RxISR_8BIT_FIFOEN+0x1c0>)
   __ASM volatile ("ldrex %0, %1" : "=r" (result) : "Q" (*addr) );
 8002206:	f103 0208 	add.w	r2, r3, #8
 800220a:	e852 2f00 	ldrex	r2, [r2]
 800220e:	4002      	ands	r2, r0
   __ASM volatile ("strex %0, %2, %1" : "=&r" (result), "=Q" (*addr) : "r" (value) );
 8002210:	f103 0508 	add.w	r5, r3, #8
 8002214:	e845 2100 	strex	r1, r2, [r5]
 8002218:	2900      	cmp	r1, #0
 800221a:	d1f4      	bne.n	8002206 <UART_RxISR_8BIT_FIFOEN+0xd6>
        if (!(IS_LPUART_INSTANCE(huart->Instance)))
 800221c:	4a35      	ldr	r2, [pc, #212]	@ (80022f4 <UART_RxISR_8BIT_FIFOEN+0x1c4>)
        huart->RxISR = NULL;
 800221e:	6761      	str	r1, [r4, #116]	@ 0x74
        huart->RxState = HAL_UART_STATE_READY;
 8002220:	2020      	movs	r0, #32
        if (!(IS_LPUART_INSTANCE(huart->Instance)))
 8002222:	4293      	cmp	r3, r2
        huart->RxState = HAL_UART_STATE_READY;
 8002224:	f8c4 008c 	str.w	r0, [r4, #140]	@ 0x8c
        huart->RxEventType = HAL_UART_RXEVENT_TC;
 8002228:	6721      	str	r1, [r4, #112]	@ 0x70
        if (!(IS_LPUART_INSTANCE(huart->Instance)))
 800222a:	d002      	beq.n	8002232 <UART_RxISR_8BIT_FIFOEN+0x102>
          if (READ_BIT(huart->Instance->CR2, USART_CR2_RTOEN) != 0U)
 800222c:	685a      	ldr	r2, [r3, #4]
 800222e:	0211      	lsls	r1, r2, #8
 8002230:	d448      	bmi.n	80022c4 <UART_RxISR_8BIT_FIFOEN+0x194>
        if (huart->ReceptionType == HAL_UART_RECEPTION_TOIDLE)
 8002232:	6ee2      	ldr	r2, [r4, #108]	@ 0x6c
 8002234:	2a01      	cmp	r2, #1
 8002236:	d156      	bne.n	80022e6 <UART_RxISR_8BIT_FIFOEN+0x1b6>
          huart->ReceptionType = HAL_UART_RECEPTION_STANDARD;
 8002238:	2200      	movs	r2, #0
 800223a:	66e2      	str	r2, [r4, #108]	@ 0x6c
   __ASM volatile ("ldrex %0, %1" : "=r" (result) : "Q" (*addr) );
 800223c:	e853 2f00 	ldrex	r2, [r3]
          ATOMIC_CLEAR_BIT(huart->Instance->CR1, USART_CR1_IDLEIE);
 8002240:	f022 0210 	bic.w	r2, r2, #16
   __ASM volatile ("strex %0, %2, %1" : "=&r" (result), "=Q" (*addr) : "r" (value) );
 8002244:	e843 2100 	strex	r1, r2, [r3]
 8002248:	2900      	cmp	r1, #0
 800224a:	d1f7      	bne.n	800223c <UART_RxISR_8BIT_FIFOEN+0x10c>
          if (__HAL_UART_GET_FLAG(huart, UART_FLAG_IDLE) == SET)
 800224c:	69da      	ldr	r2, [r3, #28]
          HAL_UARTEx_RxEventCallback(huart, huart->RxXferSize);
 800224e:	f8b4 105c 	ldrh.w	r1, [r4, #92]	@ 0x5c
          if (__HAL_UART_GET_FLAG(huart, UART_FLAG_IDLE) == SET)
 8002252:	06d2      	lsls	r2, r2, #27
            __HAL_UART_CLEAR_FLAG(huart, UART_CLEAR_IDLEF);
 8002254:	bf44      	itt	mi
 8002256:	2210      	movmi	r2, #16
 8002258:	621a      	strmi	r2, [r3, #32]
          HAL_UARTEx_RxEventCallback(huart, huart->RxXferSize);
 800225a:	4620      	mov	r0, r4
 800225c:	f7ff fd0a 	bl	8001c74 <HAL_UARTEx_RxEventCallback>
    rxdatacount = huart->RxXferCount;
 8002260:	f8b4 305e 	ldrh.w	r3, [r4, #94]	@ 0x5e
 8002264:	b29b      	uxth	r3, r3
    if ((rxdatacount != 0U) && (rxdatacount < huart->NbRxDataToProcess))
 8002266:	2b00      	cmp	r3, #0
 8002268:	f43f af73 	beq.w	8002152 <UART_RxISR_8BIT_FIFOEN+0x22>
 800226c:	f8b4 2068 	ldrh.w	r2, [r4, #104]	@ 0x68
 8002270:	429a      	cmp	r2, r3
 8002272:	f67f af6e 	bls.w	8002152 <UART_RxISR_8BIT_FIFOEN+0x22>
 8002276:	6823      	ldr	r3, [r4, #0]
   __ASM volatile ("ldrex %0, %1" : "=r" (result) : "Q" (*addr) );
 8002278:	f103 0208 	add.w	r2, r3, #8
 800227c:	e852 2f00 	ldrex	r2, [r2]
      ATOMIC_CLEAR_BIT(huart->Instance->CR3, USART_CR3_RXFTIE);
 8002280:	f022 5280 	bic.w	r2, r2, #268435456	@ 0x10000000
   __ASM volatile ("strex %0, %2, %1" : "=&r" (result), "=Q" (*addr) : "r" (value) );
 8002284:	f103 0008 	add.w	r0, r3, #8
 8002288:	e840 2100 	strex	r1, r2, [r0]
 800228c:	2900      	cmp	r1, #0
 800228e:	d1f3      	bne.n	8002278 <UART_RxISR_8BIT_FIFOEN+0x148>
      huart->RxISR = UART_RxISR_8BIT;
 8002290:	4a19      	ldr	r2, [pc, #100]	@ (80022f8 <UART_RxISR_8BIT_FIFOEN+0x1c8>)
 8002292:	6762      	str	r2, [r4, #116]	@ 0x74
   __ASM volatile ("ldrex %0, %1" : "=r" (result) : "Q" (*addr) );
 8002294:	e853 2f00 	ldrex	r2, [r3]
      ATOMIC_SET_BIT(huart->Instance->CR1, USART_CR1_RXNEIE_RXFNEIE);
 8002298:	f042 0220 	orr.w	r2, r2, #32
   __ASM volatile ("strex %0, %2, %1" : "=&r" (result), "=Q" (*addr) : "r" (value) );
 800229c:	e843 2100 	strex	r1, r2, [r3]
 80022a0:	2900      	cmp	r1, #0
 80022a2:	d1f7      	bne.n	8002294 <UART_RxISR_8BIT_FIFOEN+0x164>
 80022a4:	e755      	b.n	8002152 <UART_RxISR_8BIT_FIFOEN+0x22>
        if (((isrflags & USART_ISR_NE) != 0U) && ((cr3its & USART_CR3_EIE) != 0U))
 80022a6:	2a00      	cmp	r2, #0
 80022a8:	d09a      	beq.n	80021e0 <UART_RxISR_8BIT_FIFOEN+0xb0>
 80022aa:	f1b9 0f00 	cmp.w	r9, #0
 80022ae:	d190      	bne.n	80021d2 <UART_RxISR_8BIT_FIFOEN+0xa2>
        if (huart->ErrorCode != HAL_UART_ERROR_NONE)
 80022b0:	f8d4 3090 	ldr.w	r3, [r4, #144]	@ 0x90
 80022b4:	2b00      	cmp	r3, #0
 80022b6:	d097      	beq.n	80021e8 <UART_RxISR_8BIT_FIFOEN+0xb8>
          HAL_UART_ErrorCallback(huart);
 80022b8:	4620      	mov	r0, r4
 80022ba:	f7ff fcd1 	bl	8001c60 <HAL_UART_ErrorCallback>
          huart->ErrorCode = HAL_UART_ERROR_NONE;
 80022be:	f8c4 5090 	str.w	r5, [r4, #144]	@ 0x90
 80022c2:	e791      	b.n	80021e8 <UART_RxISR_8BIT_FIFOEN+0xb8>
   __ASM volatile ("ldrex %0, %1" : "=r" (result) : "Q" (*addr) );
 80022c4:	e853 2f00 	ldrex	r2, [r3]
            ATOMIC_CLEAR_BIT(huart->Instance->CR1, USART_CR1_RTOIE);
 80022c8:	f022 6280 	bic.w	r2, r2, #67108864	@ 0x4000000
   __ASM volatile ("strex %0, %2, %1" : "=&r" (result), "=Q" (*addr) : "r" (value) );
 80022cc:	e843 2100 	strex	r1, r2, [r3]
 80022d0:	2900      	cmp	r1, #0
 80022d2:	d0ae      	beq.n	8002232 <UART_RxISR_8BIT_FIFOEN+0x102>
   __ASM volatile ("ldrex %0, %1" : "=r" (result) : "Q" (*addr) );
 80022d4:	e853 2f00 	ldrex	r2, [r3]
 80022d8:	f022 6280 	bic.w	r2, r2, #67108864	@ 0x4000000
   __ASM volatile ("strex %0, %2, %1" : "=&r" (result), "=Q" (*addr) : "r" (value) );
 80022dc:	e843 2100 	strex	r1, r2, [r3]
 80022e0:	2900      	cmp	r1, #0
 80022e2:	d1ef      	bne.n	80022c4 <UART_RxISR_8BIT_FIFOEN+0x194>
 80022e4:	e7a5      	b.n	8002232 <UART_RxISR_8BIT_FIFOEN+0x102>
          HAL_UART_RxCpltCallback(huart);
 80022e6:	4620      	mov	r0, r4
 80022e8:	f7fe f90e 	bl	8000508 <HAL_UART_RxCpltCallback>
 80022ec:	e7b8      	b.n	8002260 <UART_RxISR_8BIT_FIFOEN+0x130>
 80022ee:	bf00      	nop
 80022f0:	effffffe 	.word	0xeffffffe
 80022f4:	40008000 	.word	0x40008000
 80022f8:	080020ed 	.word	0x080020ed

080022fc <UART_RxISR_16BIT_FIFOEN>:
  *         interruptions have been enabled by HAL_UART_Receive_IT()
  * @param huart UART handle.
  * @retval None
  */
static void UART_RxISR_16BIT_FIFOEN(UART_HandleTypeDef *huart)
{
 80022fc:	e92d 4ff8 	stmdb	sp!, {r3, r4, r5, r6, r7, r8, r9, sl, fp, lr}
  uint16_t *tmp;
  uint16_t  uhMask = huart->Mask;
  uint16_t  uhdata;
  uint16_t  nb_rx_data;
  uint16_t  rxdatacount;
  uint32_t  isrflags = READ_REG(huart->Instance->ISR);
 8002300:	6803      	ldr	r3, [r0, #0]
  uint16_t  uhMask = huart->Mask;
 8002302:	f8b0 8060 	ldrh.w	r8, [r0, #96]	@ 0x60
  uint32_t  isrflags = READ_REG(huart->Instance->ISR);
 8002306:	69de      	ldr	r6, [r3, #28]
{
 8002308:	4604      	mov	r4, r0
  uint32_t  cr1its   = READ_REG(huart->Instance->CR1);
 800230a:	6818      	ldr	r0, [r3, #0]
  uint32_t  cr3its   = READ_REG(huart->Instance->CR3);
 800230c:	6899      	ldr	r1, [r3, #8]

  /* Check that a Rx process is ongoing */
  if (huart->RxState == HAL_UART_STATE_BUSY_RX)
 800230e:	f8d4 208c 	ldr.w	r2, [r4, #140]	@ 0x8c
 8002312:	2a22      	cmp	r2, #34	@ 0x22
 8002314:	d005      	beq.n	8002322 <UART_RxISR_16BIT_FIFOEN+0x26>
    }
  }
  else
  {
    /* Clear RXNE interrupt flag */
    __HAL_UART_SEND_REQ(huart, UART_RXDATA_FLUSH_REQUEST);
 8002316:	699a      	ldr	r2, [r3, #24]
 8002318:	f042 0208 	orr.w	r2, r2, #8
 800231c:	619a      	str	r2, [r3, #24]
  }
}
 800231e:	e8bd 8ff8 	ldmia.w	sp!, {r3, r4, r5, r6, r7, r8, r9, sl, fp, pc}
    while ((nb_rx_data > 0U) && ((isrflags & USART_ISR_RXNE_RXFNE) != 0U))
 8002322:	f8b4 3068 	ldrh.w	r3, [r4, #104]	@ 0x68
        if (((isrflags & USART_ISR_PE) != 0U) && ((cr1its & USART_CR1_PEIE) != 0U))
 8002326:	f400 7a80 	and.w	sl, r0, #256	@ 0x100
        if (((isrflags & USART_ISR_NE) != 0U) && ((cr3its & USART_CR3_EIE) != 0U))
 800232a:	f001 0901 	and.w	r9, r1, #1
    while ((nb_rx_data > 0U) && ((isrflags & USART_ISR_RXNE_RXFNE) != 0U))
 800232e:	2b00      	cmp	r3, #0
 8002330:	d07a      	beq.n	8002428 <UART_RxISR_16BIT_FIFOEN+0x12c>
          huart->ErrorCode = HAL_UART_ERROR_NONE;
 8002332:	2500      	movs	r5, #0
          __HAL_UART_CLEAR_FLAG(huart, UART_CLEAR_NEF);
 8002334:	2704      	movs	r7, #4
          __HAL_UART_CLEAR_FLAG(huart, UART_CLEAR_FEF);
 8002336:	f04f 0b02 	mov.w	fp, #2
    while ((nb_rx_data > 0U) && ((isrflags & USART_ISR_RXNE_RXFNE) != 0U))
 800233a:	06b3      	lsls	r3, r6, #26
 800233c:	d574      	bpl.n	8002428 <UART_RxISR_16BIT_FIFOEN+0x12c>
      uhdata = (uint16_t) READ_REG(huart->Instance->RDR);
 800233e:	6823      	ldr	r3, [r4, #0]
      *tmp = (uint16_t)(uhdata & uhMask);
 8002340:	6da1      	ldr	r1, [r4, #88]	@ 0x58
      uhdata = (uint16_t) READ_REG(huart->Instance->RDR);
 8002342:	6a5a      	ldr	r2, [r3, #36]	@ 0x24
      *tmp = (uint16_t)(uhdata & uhMask);
 8002344:	ea08 0202 	and.w	r2, r8, r2
 8002348:	f821 2b02 	strh.w	r2, [r1], #2
      huart->RxXferCount--;
 800234c:	f8b4 205e 	ldrh.w	r2, [r4, #94]	@ 0x5e
      huart->pRxBuffPtr += 2U;
 8002350:	65a1      	str	r1, [r4, #88]	@ 0x58
      huart->RxXferCount--;
 8002352:	3a01      	subs	r2, #1
 8002354:	b292      	uxth	r2, r2
 8002356:	f8a4 205e 	strh.w	r2, [r4, #94]	@ 0x5e
      isrflags = READ_REG(huart->Instance->ISR);
 800235a:	69de      	ldr	r6, [r3, #28]
      if ((isrflags & (USART_ISR_PE | USART_ISR_FE | USART_ISR_NE)) != 0U)
 800235c:	0771      	lsls	r1, r6, #29
 800235e:	d027      	beq.n	80023b0 <UART_RxISR_16BIT_FIFOEN+0xb4>
        if (((isrflags & USART_ISR_PE) != 0U) && ((cr1its & USART_CR1_PEIE) != 0U))
 8002360:	07f2      	lsls	r2, r6, #31
 8002362:	d50a      	bpl.n	800237a <UART_RxISR_16BIT_FIFOEN+0x7e>
 8002364:	f1ba 0f00 	cmp.w	sl, #0
 8002368:	d007      	beq.n	800237a <UART_RxISR_16BIT_FIFOEN+0x7e>
          __HAL_UART_CLEAR_FLAG(huart, UART_CLEAR_PEF);
 800236a:	2201      	movs	r2, #1
 800236c:	621a      	str	r2, [r3, #32]
          huart->ErrorCode |= HAL_UART_ERROR_PE;
 800236e:	f8d4 2090 	ldr.w	r2, [r4, #144]	@ 0x90
 8002372:	f042 0201 	orr.w	r2, r2, #1
 8002376:	f8c4 2090 	str.w	r2, [r4, #144]	@ 0x90
        if (((isrflags & USART_ISR_FE) != 0U) && ((cr3its & USART_CR3_EIE) != 0U))
 800237a:	07b0      	lsls	r0, r6, #30
        if (((isrflags & USART_ISR_NE) != 0U) && ((cr3its & USART_CR3_EIE) != 0U))
 800237c:	f006 0204 	and.w	r2, r6, #4
        if (((isrflags & USART_ISR_FE) != 0U) && ((cr3its & USART_CR3_EIE) != 0U))
 8002380:	d575      	bpl.n	800246e <UART_RxISR_16BIT_FIFOEN+0x172>
 8002382:	f1b9 0f00 	cmp.w	r9, #0
 8002386:	d00f      	beq.n	80023a8 <UART_RxISR_16BIT_FIFOEN+0xac>
          __HAL_UART_CLEAR_FLAG(huart, UART_CLEAR_FEF);
 8002388:	f8c3 b020 	str.w	fp, [r3, #32]
          huart->ErrorCode |= HAL_UART_ERROR_FE;
 800238c:	f8d4 1090 	ldr.w	r1, [r4, #144]	@ 0x90
 8002390:	f041 0104 	orr.w	r1, r1, #4
 8002394:	f8c4 1090 	str.w	r1, [r4, #144]	@ 0x90
        if (((isrflags & USART_ISR_NE) != 0U) && ((cr3its & USART_CR3_EIE) != 0U))
 8002398:	b132      	cbz	r2, 80023a8 <UART_RxISR_16BIT_FIFOEN+0xac>
          __HAL_UART_CLEAR_FLAG(huart, UART_CLEAR_NEF);
 800239a:	621f      	str	r7, [r3, #32]
          huart->ErrorCode |= HAL_UART_ERROR_NE;
 800239c:	f8d4 3090 	ldr.w	r3, [r4, #144]	@ 0x90
 80023a0:	f043 0302 	orr.w	r3, r3, #2
 80023a4:	f8c4 3090 	str.w	r3, [r4, #144]	@ 0x90
        if (huart->ErrorCode != HAL_UART_ERROR_NONE)
 80023a8:	f8d4 3090 	ldr.w	r3, [r4, #144]	@ 0x90
 80023ac:	2b00      	cmp	r3, #0
 80023ae:	d167      	bne.n	8002480 <UART_RxISR_16BIT_FIFOEN+0x184>
      if (huart->RxXferCount == 0U)
 80023b0:	f8b4 305e 	ldrh.w	r3, [r4, #94]	@ 0x5e
 80023b4:	b29b      	uxth	r3, r3
 80023b6:	2b00      	cmp	r3, #0
 80023b8:	d1bf      	bne.n	800233a <UART_RxISR_16BIT_FIFOEN+0x3e>
 80023ba:	6823      	ldr	r3, [r4, #0]
   __ASM volatile ("ldrex %0, %1" : "=r" (result) : "Q" (*addr) );
 80023bc:	e853 2f00 	ldrex	r2, [r3]
        ATOMIC_CLEAR_BIT(huart->Instance->CR1, USART_CR1_PEIE);
 80023c0:	f422 7280 	bic.w	r2, r2, #256	@ 0x100
   __ASM volatile ("strex %0, %2, %1" : "=&r" (result), "=Q" (*addr) : "r" (value) );
 80023c4:	e843 2100 	strex	r1, r2, [r3]
 80023c8:	2900      	cmp	r1, #0
 80023ca:	d1f7      	bne.n	80023bc <UART_RxISR_16BIT_FIFOEN+0xc0>
        ATOMIC_CLEAR_BIT(huart->Instance->CR3, (USART_CR3_EIE | USART_CR3_RXFTIE));
 80023cc:	483a      	ldr	r0, [pc, #232]	@ (80024b8 <UART_RxISR_16BIT_FIFOEN+0x1bc>)
   __ASM volatile ("ldrex %0, %1" : "=r" (result) : "Q" (*addr) );
 80023ce:	f103 0208 	add.w	r2, r3, #8
 80023d2:	e852 2f00 	ldrex	r2, [r2]
 80023d6:	4002      	ands	r2, r0
   __ASM volatile ("strex %0, %2, %1" : "=&r" (result), "=Q" (*addr) : "r" (value) );
 80023d8:	f103 0508 	add.w	r5, r3, #8
 80023dc:	e845 2100 	strex	r1, r2, [r5]
 80023e0:	2900      	cmp	r1, #0
 80023e2:	d1f4      	bne.n	80023ce <UART_RxISR_16BIT_FIFOEN+0xd2>
        if (!(IS_LPUART_INSTANCE(huart->Instance)))
 80023e4:	4a35      	ldr	r2, [pc, #212]	@ (80024bc <UART_RxISR_16BIT_FIFOEN+0x1c0>)
        huart->RxISR = NULL;
 80023e6:	6761      	str	r1, [r4, #116]	@ 0x74
        huart->RxState = HAL_UART_STATE_READY;
 80023e8:	2020      	movs	r0, #32
        if (!(IS_LPUART_INSTANCE(huart->Instance)))
 80023ea:	4293      	cmp	r3, r2
        huart->RxState = HAL_UART_STATE_READY;
 80023ec:	f8c4 008c 	str.w	r0, [r4, #140]	@ 0x8c
        huart->RxEventType = HAL_UART_RXEVENT_TC;
 80023f0:	6721      	str	r1, [r4, #112]	@ 0x70
        if (!(IS_LPUART_INSTANCE(huart->Instance)))
 80023f2:	d002      	beq.n	80023fa <UART_RxISR_16BIT_FIFOEN+0xfe>
          if (READ_BIT(huart->Instance->CR2, USART_CR2_RTOEN) != 0U)
 80023f4:	685a      	ldr	r2, [r3, #4]
 80023f6:	0211      	lsls	r1, r2, #8
 80023f8:	d448      	bmi.n	800248c <UART_RxISR_16BIT_FIFOEN+0x190>
        if (huart->ReceptionType == HAL_UART_RECEPTION_TOIDLE)
 80023fa:	6ee2      	ldr	r2, [r4, #108]	@ 0x6c
 80023fc:	2a01      	cmp	r2, #1
 80023fe:	d156      	bne.n	80024ae <UART_RxISR_16BIT_FIFOEN+0x1b2>
          huart->ReceptionType = HAL_UART_RECEPTION_STANDARD;
 8002400:	2200      	movs	r2, #0
 8002402:	66e2      	str	r2, [r4, #108]	@ 0x6c
   __ASM volatile ("ldrex %0, %1" : "=r" (result) : "Q" (*addr) );
 8002404:	e853 2f00 	ldrex	r2, [r3]
          ATOMIC_CLEAR_BIT(huart->Instance->CR1, USART_CR1_IDLEIE);
 8002408:	f022 0210 	bic.w	r2, r2, #16
   __ASM volatile ("strex %0, %2, %1" : "=&r" (result), "=Q" (*addr) : "r" (value) );
 800240c:	e843 2100 	strex	r1, r2, [r3]
 8002410:	2900      	cmp	r1, #0
 8002412:	d1f7      	bne.n	8002404 <UART_RxISR_16BIT_FIFOEN+0x108>
          if (__HAL_UART_GET_FLAG(huart, UART_FLAG_IDLE) == SET)
 8002414:	69da      	ldr	r2, [r3, #28]
          HAL_UARTEx_RxEventCallback(huart, huart->RxXferSize);
 8002416:	f8b4 105c 	ldrh.w	r1, [r4, #92]	@ 0x5c
          if (__HAL_UART_GET_FLAG(huart, UART_FLAG_IDLE) == SET)
 800241a:	06d2      	lsls	r2, r2, #27
            __HAL_UART_CLEAR_FLAG(huart, UART_CLEAR_IDLEF);
 800241c:	bf44      	itt	mi
 800241e:	2210      	movmi	r2, #16
 8002420:	621a      	strmi	r2, [r3, #32]
          HAL_UARTEx_RxEventCallback(huart, huart->RxXferSize);
 8002422:	4620      	mov	r0, r4
 8002424:	f7ff fc26 	bl	8001c74 <HAL_UARTEx_RxEventCallback>
    rxdatacount = huart->RxXferCount;
 8002428:	f8b4 305e 	ldrh.w	r3, [r4, #94]	@ 0x5e
 800242c:	b29b      	uxth	r3, r3
    if ((rxdatacount != 0U) && (rxdatacount < huart->NbRxDataToProcess))
 800242e:	2b00      	cmp	r3, #0
 8002430:	f43f af75 	beq.w	800231e <UART_RxISR_16BIT_FIFOEN+0x22>
 8002434:	f8b4 2068 	ldrh.w	r2, [r4, #104]	@ 0x68
 8002438:	429a      	cmp	r2, r3
 800243a:	f67f af70 	bls.w	800231e <UART_RxISR_16BIT_FIFOEN+0x22>
 800243e:	6823      	ldr	r3, [r4, #0]
   __ASM volatile ("ldrex %0, %1" : "=r" (result) : "Q" (*addr) );
 8002440:	f103 0208 	add.w	r2, r3, #8
 8002444:	e852 2f00 	ldrex	r2, [r2]
      ATOMIC_CLEAR_BIT(huart->Instance->CR3, USART_CR3_RXFTIE);
 8002448:	f022 5280 	bic.w	r2, r2, #268435456	@ 0x10000000
   __ASM volatile ("strex %0, %2, %1" : "=&r" (result), "=Q" (*addr) : "r" (value) );
 800244c:	f103 0008 	add.w	r0, r3, #8
 8002450:	e840 2100 	strex	r1, r2, [r0]
 8002454:	2900      	cmp	r1, #0
 8002456:	d1f3      	bne.n	8002440 <UART_RxISR_16BIT_FIFOEN+0x144>
      huart->RxISR = UART_RxISR_16BIT;
 8002458:	4a19      	ldr	r2, [pc, #100]	@ (80024c0 <UART_RxISR_16BIT_FIFOEN+0x1c4>)
 800245a:	6762      	str	r2, [r4, #116]	@ 0x74
   __ASM volatile ("ldrex %0, %1" : "=r" (result) : "Q" (*addr) );
 800245c:	e853 2f00 	ldrex	r2, [r3]
      ATOMIC_SET_BIT(huart->Instance->CR1, USART_CR1_RXNEIE_RXFNEIE);
 8002460:	f042 0220 	orr.w	r2, r2, #32
   __ASM volatile ("strex %0, %2, %1" : "=&r" (result), "=Q" (*addr) : "r" (value) );
 8002464:	e843 2100 	strex	r1, r2, [r3]
 8002468:	2900      	cmp	r1, #0
 800246a:	d1f7      	bne.n	800245c <UART_RxISR_16BIT_FIFOEN+0x160>
 800246c:	e757      	b.n	800231e <UART_RxISR_16BIT_FIFOEN+0x22>
        if (((isrflags & USART_ISR_NE) != 0U) && ((cr3its & USART_CR3_EIE) != 0U))
 800246e:	2a00      	cmp	r2, #0
 8002470:	d09a      	beq.n	80023a8 <UART_RxISR_16BIT_FIFOEN+0xac>
 8002472:	f1b9 0f00 	cmp.w	r9, #0
 8002476:	d190      	bne.n	800239a <UART_RxISR_16BIT_FIFOEN+0x9e>
        if (huart->ErrorCode != HAL_UART_ERROR_NONE)
 8002478:	f8d4 3090 	ldr.w	r3, [r4, #144]	@ 0x90
 800247c:	2b00      	cmp	r3, #0
 800247e:	d097      	beq.n	80023b0 <UART_RxISR_16BIT_FIFOEN+0xb4>
          HAL_UART_ErrorCallback(huart);
 8002480:	4620      	mov	r0, r4
 8002482:	f7ff fbed 	bl	8001c60 <HAL_UART_ErrorCallback>
          huart->ErrorCode = HAL_UART_ERROR_NONE;
 8002486:	f8c4 5090 	str.w	r5, [r4, #144]	@ 0x90
 800248a:	e791      	b.n	80023b0 <UART_RxISR_16BIT_FIFOEN+0xb4>
   __ASM volatile ("ldrex %0, %1" : "=r" (result) : "Q" (*addr) );
 800248c:	e853 2f00 	ldrex	r2, [r3]
            ATOMIC_CLEAR_BIT(huart->Instance->CR1, USART_CR1_RTOIE);
 8002490:	f022 6280 	bic.w	r2, r2, #67108864	@ 0x4000000
   __ASM volatile ("strex %0, %2, %1" : "=&r" (result), "=Q" (*addr) : "r" (value) );
 8002494:	e843 2100 	strex	r1, r2, [r3]
 8002498:	2900      	cmp	r1, #0
 800249a:	d0ae      	beq.n	80023fa <UART_RxISR_16BIT_FIFOEN+0xfe>
   __ASM volatile ("ldrex %0, %1" : "=r" (result) : "Q" (*addr) );
 800249c:	e853 2f00 	ldrex	r2, [r3]
 80024a0:	f022 6280 	bic.w	r2, r2, #67108864	@ 0x4000000
   __ASM volatile ("strex %0, %2, %1" : "=&r" (result), "=Q" (*addr) : "r" (value) );
 80024a4:	e843 2100 	strex	r1, r2, [r3]
 80024a8:	2900      	cmp	r1, #0
 80024aa:	d1ef      	bne.n	800248c <UART_RxISR_16BIT_FIFOEN+0x190>
 80024ac:	e7a5      	b.n	80023fa <UART_RxISR_16BIT_FIFOEN+0xfe>
          HAL_UART_RxCpltCallback(huart);
 80024ae:	4620      	mov	r0, r4
 80024b0:	f7fe f82a 	bl	8000508 <HAL_UART_RxCpltCallback>
 80024b4:	e7b8      	b.n	8002428 <UART_RxISR_16BIT_FIFOEN+0x12c>
 80024b6:	bf00      	nop
 80024b8:	effffffe 	.word	0xeffffffe
 80024bc:	40008000 	.word	0x40008000
 80024c0:	080020a5 	.word	0x080020a5

080024c4 <UART_SetConfig>:
{
 80024c4:	b570      	push	{r4, r5, r6, lr}
 80024c6:	4604      	mov	r4, r0
  if (UART_INSTANCE_LOWPOWER(huart))
 80024c8:	6803      	ldr	r3, [r0, #0]
  tmpreg = (uint32_t)huart->Init.WordLength | huart->Init.Parity | huart->Init.Mode | huart->Init.OverSampling ;
 80024ca:	6882      	ldr	r2, [r0, #8]
 80024cc:	6900      	ldr	r0, [r0, #16]
 80024ce:	6961      	ldr	r1, [r4, #20]
  MODIFY_REG(huart->Instance->CR1, USART_CR1_FIELDS, tmpreg);
 80024d0:	681d      	ldr	r5, [r3, #0]
  tmpreg = (uint32_t)huart->Init.WordLength | huart->Init.Parity | huart->Init.Mode | huart->Init.OverSampling ;
 80024d2:	4302      	orrs	r2, r0
 80024d4:	430a      	orrs	r2, r1
 80024d6:	69e0      	ldr	r0, [r4, #28]
  MODIFY_REG(huart->Instance->CR1, USART_CR1_FIELDS, tmpreg);
 80024d8:	49a0      	ldr	r1, [pc, #640]	@ (800275c <UART_SetConfig+0x298>)
  tmpreg = (uint32_t)huart->Init.WordLength | huart->Init.Parity | huart->Init.Mode | huart->Init.OverSampling ;
 80024da:	4302      	orrs	r2, r0
  MODIFY_REG(huart->Instance->CR1, USART_CR1_FIELDS, tmpreg);
 80024dc:	4029      	ands	r1, r5
 80024de:	430a      	orrs	r2, r1
 80024e0:	601a      	str	r2, [r3, #0]
  MODIFY_REG(huart->Instance->CR2, USART_CR2_STOP, huart->Init.StopBits);
 80024e2:	685a      	ldr	r2, [r3, #4]
 80024e4:	68e1      	ldr	r1, [r4, #12]
  MODIFY_REG(huart->Instance->PRESC, USART_PRESC_PRESCALER, huart->Init.ClockPrescaler);
 80024e6:	6a65      	ldr	r5, [r4, #36]	@ 0x24
  MODIFY_REG(huart->Instance->CR2, USART_CR2_STOP, huart->Init.StopBits);
 80024e8:	f422 5240 	bic.w	r2, r2, #12288	@ 0x3000
 80024ec:	430a      	orrs	r2, r1
  if (!(UART_INSTANCE_LOWPOWER(huart)))
 80024ee:	499c      	ldr	r1, [pc, #624]	@ (8002760 <UART_SetConfig+0x29c>)
  MODIFY_REG(huart->Instance->CR2, USART_CR2_STOP, huart->Init.StopBits);
 80024f0:	605a      	str	r2, [r3, #4]
  if (!(UART_INSTANCE_LOWPOWER(huart)))
 80024f2:	428b      	cmp	r3, r1
  MODIFY_REG(huart->Instance->CR3, USART_CR3_FIELDS, tmpreg);
 80024f4:	6899      	ldr	r1, [r3, #8]
  tmpreg = (uint32_t)huart->Init.HwFlowCtl;
 80024f6:	69a2      	ldr	r2, [r4, #24]
  MODIFY_REG(huart->Instance->CR3, USART_CR3_FIELDS, tmpreg);
 80024f8:	f021 416e 	bic.w	r1, r1, #3992977408	@ 0xee000000
 80024fc:	f421 6130 	bic.w	r1, r1, #2816	@ 0xb00
  if (!(UART_INSTANCE_LOWPOWER(huart)))
 8002500:	f000 80d1 	beq.w	80026a6 <UART_SetConfig+0x1e2>
    tmpreg |= huart->Init.OneBitSampling;
 8002504:	6a26      	ldr	r6, [r4, #32]
 8002506:	4332      	orrs	r2, r6
  MODIFY_REG(huart->Instance->CR3, USART_CR3_FIELDS, tmpreg);
 8002508:	430a      	orrs	r2, r1
 800250a:	609a      	str	r2, [r3, #8]
  MODIFY_REG(huart->Instance->PRESC, USART_PRESC_PRESCALER, huart->Init.ClockPrescaler);
 800250c:	6ada      	ldr	r2, [r3, #44]	@ 0x2c
 800250e:	f022 020f 	bic.w	r2, r2, #15
 8002512:	432a      	orrs	r2, r5
 8002514:	62da      	str	r2, [r3, #44]	@ 0x2c
  UART_GETCLOCKSOURCE(huart, clocksource);
 8002516:	4a93      	ldr	r2, [pc, #588]	@ (8002764 <UART_SetConfig+0x2a0>)
 8002518:	4293      	cmp	r3, r2
 800251a:	d039      	beq.n	8002590 <UART_SetConfig+0xcc>
 800251c:	4a92      	ldr	r2, [pc, #584]	@ (8002768 <UART_SetConfig+0x2a4>)
 800251e:	4293      	cmp	r3, r2
 8002520:	d012      	beq.n	8002548 <UART_SetConfig+0x84>
 8002522:	4a92      	ldr	r2, [pc, #584]	@ (800276c <UART_SetConfig+0x2a8>)
 8002524:	4293      	cmp	r3, r2
 8002526:	f000 80a6 	beq.w	8002676 <UART_SetConfig+0x1b2>
 800252a:	4a91      	ldr	r2, [pc, #580]	@ (8002770 <UART_SetConfig+0x2ac>)
 800252c:	4293      	cmp	r3, r2
 800252e:	d043      	beq.n	80025b8 <UART_SetConfig+0xf4>
 8002530:	4a90      	ldr	r2, [pc, #576]	@ (8002774 <UART_SetConfig+0x2b0>)
 8002532:	4293      	cmp	r3, r2
 8002534:	f000 808f 	beq.w	8002656 <UART_SetConfig+0x192>
        ret = HAL_ERROR;
 8002538:	2001      	movs	r0, #1
  huart->RxISR = NULL;
 800253a:	2300      	movs	r3, #0
  huart->NbRxDataToProcess = 1;
 800253c:	f04f 1201 	mov.w	r2, #65537	@ 0x10001
  huart->TxISR = NULL;
 8002540:	e9c4 331d 	strd	r3, r3, [r4, #116]	@ 0x74
  huart->NbRxDataToProcess = 1;
 8002544:	66a2      	str	r2, [r4, #104]	@ 0x68
}
 8002546:	bd70      	pop	{r4, r5, r6, pc}
  UART_GETCLOCKSOURCE(huart, clocksource);
 8002548:	4b8b      	ldr	r3, [pc, #556]	@ (8002778 <UART_SetConfig+0x2b4>)
 800254a:	f8d3 3088 	ldr.w	r3, [r3, #136]	@ 0x88
 800254e:	f003 030c 	and.w	r3, r3, #12
 8002552:	2b0c      	cmp	r3, #12
 8002554:	d8f0      	bhi.n	8002538 <UART_SetConfig+0x74>
 8002556:	a201      	add	r2, pc, #4	@ (adr r2, 800255c <UART_SetConfig+0x98>)
 8002558:	f852 f023 	ldr.w	pc, [r2, r3, lsl #2]
 800255c:	0800266b 	.word	0x0800266b
 8002560:	08002539 	.word	0x08002539
 8002564:	08002539 	.word	0x08002539
 8002568:	08002539 	.word	0x08002539
 800256c:	080025d1 	.word	0x080025d1
 8002570:	08002539 	.word	0x08002539
 8002574:	08002539 	.word	0x08002539
 8002578:	08002539 	.word	0x08002539
 800257c:	08002619 	.word	0x08002619
 8002580:	08002539 	.word	0x08002539
 8002584:	08002539 	.word	0x08002539
 8002588:	08002539 	.word	0x08002539
 800258c:	080025e9 	.word	0x080025e9
 8002590:	4b79      	ldr	r3, [pc, #484]	@ (8002778 <UART_SetConfig+0x2b4>)
 8002592:	f8d3 3088 	ldr.w	r3, [r3, #136]	@ 0x88
 8002596:	f003 0303 	and.w	r3, r3, #3
 800259a:	2b02      	cmp	r3, #2
 800259c:	d03c      	beq.n	8002618 <UART_SetConfig+0x154>
 800259e:	2b03      	cmp	r3, #3
 80025a0:	d022      	beq.n	80025e8 <UART_SetConfig+0x124>
 80025a2:	2b01      	cmp	r3, #1
 80025a4:	d014      	beq.n	80025d0 <UART_SetConfig+0x10c>
  else if (huart->Init.OverSampling == UART_OVERSAMPLING_8)
 80025a6:	f5b0 4f00 	cmp.w	r0, #32768	@ 0x8000
 80025aa:	f000 80ce 	beq.w	800274a <UART_SetConfig+0x286>
        pclk = HAL_RCC_GetPCLK2Freq();
 80025ae:	f7ff f8fd 	bl	80017ac <HAL_RCC_GetPCLK2Freq>
    if (pclk != 0U)
 80025b2:	b9a8      	cbnz	r0, 80025e0 <UART_SetConfig+0x11c>
        ret = HAL_ERROR;
 80025b4:	2000      	movs	r0, #0
 80025b6:	e7c0      	b.n	800253a <UART_SetConfig+0x76>
  UART_GETCLOCKSOURCE(huart, clocksource);
 80025b8:	4b6f      	ldr	r3, [pc, #444]	@ (8002778 <UART_SetConfig+0x2b4>)
 80025ba:	f8d3 3088 	ldr.w	r3, [r3, #136]	@ 0x88
 80025be:	f003 03c0 	and.w	r3, r3, #192	@ 0xc0
 80025c2:	2b80      	cmp	r3, #128	@ 0x80
 80025c4:	d028      	beq.n	8002618 <UART_SetConfig+0x154>
 80025c6:	d863      	bhi.n	8002690 <UART_SetConfig+0x1cc>
 80025c8:	2b00      	cmp	r3, #0
 80025ca:	d04e      	beq.n	800266a <UART_SetConfig+0x1a6>
 80025cc:	2b40      	cmp	r3, #64	@ 0x40
 80025ce:	d1b3      	bne.n	8002538 <UART_SetConfig+0x74>
  else if (huart->Init.OverSampling == UART_OVERSAMPLING_8)
 80025d0:	f5b0 4f00 	cmp.w	r0, #32768	@ 0x8000
 80025d4:	f000 80be 	beq.w	8002754 <UART_SetConfig+0x290>
        pclk = HAL_RCC_GetSysClockFreq();
 80025d8:	f7fe ff9a 	bl	8001510 <HAL_RCC_GetSysClockFreq>
    if (pclk != 0U)
 80025dc:	2800      	cmp	r0, #0
 80025de:	d0e9      	beq.n	80025b4 <UART_SetConfig+0xf0>
      usartdiv = (uint32_t)(UART_DIV_SAMPLING16(pclk, huart->Init.BaudRate, huart->Init.ClockPrescaler));
 80025e0:	6a65      	ldr	r5, [r4, #36]	@ 0x24
 80025e2:	e006      	b.n	80025f2 <UART_SetConfig+0x12e>
  UART_GETCLOCKSOURCE(huart, clocksource);
 80025e4:	2b30      	cmp	r3, #48	@ 0x30
 80025e6:	d1a7      	bne.n	8002538 <UART_SetConfig+0x74>
  else if (huart->Init.OverSampling == UART_OVERSAMPLING_8)
 80025e8:	f5b0 4f00 	cmp.w	r0, #32768	@ 0x8000
 80025ec:	d018      	beq.n	8002620 <UART_SetConfig+0x15c>
        pclk = (uint32_t) LSE_VALUE;
 80025ee:	f44f 4000 	mov.w	r0, #32768	@ 0x8000
      usartdiv = (uint32_t)(UART_DIV_SAMPLING16(pclk, huart->Init.BaudRate, huart->Init.ClockPrescaler));
 80025f2:	6863      	ldr	r3, [r4, #4]
 80025f4:	4a61      	ldr	r2, [pc, #388]	@ (800277c <UART_SetConfig+0x2b8>)
 80025f6:	f832 1015 	ldrh.w	r1, [r2, r5, lsl #1]
 80025fa:	fbb0 f0f1 	udiv	r0, r0, r1
      if ((usartdiv >= UART_BRR_MIN) && (usartdiv <= UART_BRR_MAX))
 80025fe:	f64f 72ef 	movw	r2, #65519	@ 0xffef
      usartdiv = (uint32_t)(UART_DIV_SAMPLING16(pclk, huart->Init.BaudRate, huart->Init.ClockPrescaler));
 8002602:	eb00 0053 	add.w	r0, r0, r3, lsr #1
 8002606:	fbb0 f0f3 	udiv	r0, r0, r3
      if ((usartdiv >= UART_BRR_MIN) && (usartdiv <= UART_BRR_MAX))
 800260a:	f1a0 0310 	sub.w	r3, r0, #16
 800260e:	4293      	cmp	r3, r2
 8002610:	d892      	bhi.n	8002538 <UART_SetConfig+0x74>
          huart->Instance->BRR = usartdiv;
 8002612:	6823      	ldr	r3, [r4, #0]
 8002614:	60d8      	str	r0, [r3, #12]
 8002616:	e7cd      	b.n	80025b4 <UART_SetConfig+0xf0>
  else if (huart->Init.OverSampling == UART_OVERSAMPLING_8)
 8002618:	f5b0 4f00 	cmp.w	r0, #32768	@ 0x8000
        pclk = (uint32_t) HSI_VALUE;
 800261c:	4858      	ldr	r0, [pc, #352]	@ (8002780 <UART_SetConfig+0x2bc>)
  else if (huart->Init.OverSampling == UART_OVERSAMPLING_8)
 800261e:	d1e8      	bne.n	80025f2 <UART_SetConfig+0x12e>
      usartdiv = (uint32_t)(UART_DIV_SAMPLING8(pclk, huart->Init.BaudRate, huart->Init.ClockPrescaler));
 8002620:	6862      	ldr	r2, [r4, #4]
 8002622:	4b56      	ldr	r3, [pc, #344]	@ (800277c <UART_SetConfig+0x2b8>)
 8002624:	f833 1015 	ldrh.w	r1, [r3, r5, lsl #1]
 8002628:	fbb0 f0f1 	udiv	r0, r0, r1
 800262c:	0853      	lsrs	r3, r2, #1
 800262e:	eb03 0340 	add.w	r3, r3, r0, lsl #1
      if ((usartdiv >= UART_BRR_MIN) && (usartdiv <= UART_BRR_MAX))
 8002632:	f64f 71ef 	movw	r1, #65519	@ 0xffef
      usartdiv = (uint32_t)(UART_DIV_SAMPLING8(pclk, huart->Init.BaudRate, huart->Init.ClockPrescaler));
 8002636:	fbb3 f3f2 	udiv	r3, r3, r2
      if ((usartdiv >= UART_BRR_MIN) && (usartdiv <= UART_BRR_MAX))
 800263a:	f1a3 0210 	sub.w	r2, r3, #16
 800263e:	428a      	cmp	r2, r1
 8002640:	f63f af7a 	bhi.w	8002538 <UART_SetConfig+0x74>
        brrtemp = (uint16_t)(usartdiv & 0xFFF0U);
 8002644:	f023 020f 	bic.w	r2, r3, #15
        huart->Instance->BRR = brrtemp;
 8002648:	6821      	ldr	r1, [r4, #0]
        brrtemp = (uint16_t)(usartdiv & 0xFFF0U);
 800264a:	b292      	uxth	r2, r2
        brrtemp |= (uint16_t)((usartdiv & (uint16_t)0x000FU) >> 1U);
 800264c:	f3c3 0342 	ubfx	r3, r3, #1, #3
        huart->Instance->BRR = brrtemp;
 8002650:	4313      	orrs	r3, r2
 8002652:	60cb      	str	r3, [r1, #12]
 8002654:	e7ae      	b.n	80025b4 <UART_SetConfig+0xf0>
  UART_GETCLOCKSOURCE(huart, clocksource);
 8002656:	4b48      	ldr	r3, [pc, #288]	@ (8002778 <UART_SetConfig+0x2b4>)
 8002658:	f8d3 3088 	ldr.w	r3, [r3, #136]	@ 0x88
 800265c:	f403 7340 	and.w	r3, r3, #768	@ 0x300
 8002660:	f5b3 7f00 	cmp.w	r3, #512	@ 0x200
 8002664:	d0d8      	beq.n	8002618 <UART_SetConfig+0x154>
 8002666:	d81a      	bhi.n	800269e <UART_SetConfig+0x1da>
 8002668:	b9ab      	cbnz	r3, 8002696 <UART_SetConfig+0x1d2>
  else if (huart->Init.OverSampling == UART_OVERSAMPLING_8)
 800266a:	f5b0 4f00 	cmp.w	r0, #32768	@ 0x8000
 800266e:	d065      	beq.n	800273c <UART_SetConfig+0x278>
        pclk = HAL_RCC_GetPCLK1Freq();
 8002670:	f7ff f88a 	bl	8001788 <HAL_RCC_GetPCLK1Freq>
        break;
 8002674:	e79d      	b.n	80025b2 <UART_SetConfig+0xee>
  UART_GETCLOCKSOURCE(huart, clocksource);
 8002676:	4b40      	ldr	r3, [pc, #256]	@ (8002778 <UART_SetConfig+0x2b4>)
 8002678:	f8d3 3088 	ldr.w	r3, [r3, #136]	@ 0x88
 800267c:	f003 0330 	and.w	r3, r3, #48	@ 0x30
 8002680:	2b20      	cmp	r3, #32
 8002682:	d0c9      	beq.n	8002618 <UART_SetConfig+0x154>
 8002684:	d8ae      	bhi.n	80025e4 <UART_SetConfig+0x120>
 8002686:	2b00      	cmp	r3, #0
 8002688:	d0ef      	beq.n	800266a <UART_SetConfig+0x1a6>
 800268a:	2b10      	cmp	r3, #16
 800268c:	d0a0      	beq.n	80025d0 <UART_SetConfig+0x10c>
 800268e:	e753      	b.n	8002538 <UART_SetConfig+0x74>
 8002690:	2bc0      	cmp	r3, #192	@ 0xc0
 8002692:	d0a9      	beq.n	80025e8 <UART_SetConfig+0x124>
 8002694:	e750      	b.n	8002538 <UART_SetConfig+0x74>
 8002696:	f5b3 7f80 	cmp.w	r3, #256	@ 0x100
 800269a:	d099      	beq.n	80025d0 <UART_SetConfig+0x10c>
 800269c:	e74c      	b.n	8002538 <UART_SetConfig+0x74>
 800269e:	f5b3 7f40 	cmp.w	r3, #768	@ 0x300
 80026a2:	d0a1      	beq.n	80025e8 <UART_SetConfig+0x124>
 80026a4:	e748      	b.n	8002538 <UART_SetConfig+0x74>
  MODIFY_REG(huart->Instance->CR3, USART_CR3_FIELDS, tmpreg);
 80026a6:	4311      	orrs	r1, r2
 80026a8:	6099      	str	r1, [r3, #8]
  MODIFY_REG(huart->Instance->PRESC, USART_PRESC_PRESCALER, huart->Init.ClockPrescaler);
 80026aa:	6ada      	ldr	r2, [r3, #44]	@ 0x2c
  UART_GETCLOCKSOURCE(huart, clocksource);
 80026ac:	4932      	ldr	r1, [pc, #200]	@ (8002778 <UART_SetConfig+0x2b4>)
  MODIFY_REG(huart->Instance->PRESC, USART_PRESC_PRESCALER, huart->Init.ClockPrescaler);
 80026ae:	f022 020f 	bic.w	r2, r2, #15
 80026b2:	432a      	orrs	r2, r5
 80026b4:	62da      	str	r2, [r3, #44]	@ 0x2c
  UART_GETCLOCKSOURCE(huart, clocksource);
 80026b6:	f8d1 3088 	ldr.w	r3, [r1, #136]	@ 0x88
 80026ba:	f403 6340 	and.w	r3, r3, #3072	@ 0xc00
 80026be:	f5b3 6f00 	cmp.w	r3, #2048	@ 0x800
 80026c2:	d045      	beq.n	8002750 <UART_SetConfig+0x28c>
 80026c4:	d833      	bhi.n	800272e <UART_SetConfig+0x26a>
 80026c6:	b37b      	cbz	r3, 8002728 <UART_SetConfig+0x264>
 80026c8:	f5b3 6f80 	cmp.w	r3, #1024	@ 0x400
 80026cc:	f47f af34 	bne.w	8002538 <UART_SetConfig+0x74>
        pclk = HAL_RCC_GetSysClockFreq();
 80026d0:	f7fe ff1e 	bl	8001510 <HAL_RCC_GetSysClockFreq>
    if (pclk != 0U)
 80026d4:	2800      	cmp	r0, #0
 80026d6:	f43f af6d 	beq.w	80025b4 <UART_SetConfig+0xf0>
      lpuart_ker_ck_pres = (pclk / UARTPrescTable[huart->Init.ClockPrescaler]);
 80026da:	6a65      	ldr	r5, [r4, #36]	@ 0x24
      if ((lpuart_ker_ck_pres < (3U * huart->Init.BaudRate)) ||
 80026dc:	6866      	ldr	r6, [r4, #4]
      lpuart_ker_ck_pres = (pclk / UARTPrescTable[huart->Init.ClockPrescaler]);
 80026de:	4b27      	ldr	r3, [pc, #156]	@ (800277c <UART_SetConfig+0x2b8>)
      if ((lpuart_ker_ck_pres < (3U * huart->Init.BaudRate)) ||
 80026e0:	eb06 0146 	add.w	r1, r6, r6, lsl #1
      lpuart_ker_ck_pres = (pclk / UARTPrescTable[huart->Init.ClockPrescaler]);
 80026e4:	f833 2015 	ldrh.w	r2, [r3, r5, lsl #1]
 80026e8:	fbb0 f3f2 	udiv	r3, r0, r2
      if ((lpuart_ker_ck_pres < (3U * huart->Init.BaudRate)) ||
 80026ec:	4299      	cmp	r1, r3
 80026ee:	f63f af23 	bhi.w	8002538 <UART_SetConfig+0x74>
 80026f2:	ebb3 3f06 	cmp.w	r3, r6, lsl #12
 80026f6:	f63f af1f 	bhi.w	8002538 <UART_SetConfig+0x74>
        usartdiv = (uint32_t)(UART_DIV_LPUART(pclk, huart->Init.BaudRate, huart->Init.ClockPrescaler));
 80026fa:	2300      	movs	r3, #0
 80026fc:	4619      	mov	r1, r3
 80026fe:	f7fd fd8b 	bl	8000218 <__aeabi_uldivmod>
 8002702:	0872      	lsrs	r2, r6, #1
 8002704:	0203      	lsls	r3, r0, #8
 8002706:	0209      	lsls	r1, r1, #8
 8002708:	ea41 6110 	orr.w	r1, r1, r0, lsr #24
 800270c:	1898      	adds	r0, r3, r2
 800270e:	f141 0100 	adc.w	r1, r1, #0
 8002712:	4632      	mov	r2, r6
 8002714:	2300      	movs	r3, #0
 8002716:	f7fd fd7f 	bl	8000218 <__aeabi_uldivmod>
        if ((usartdiv >= LPUART_BRR_MIN) && (usartdiv <= LPUART_BRR_MAX))
 800271a:	4b1a      	ldr	r3, [pc, #104]	@ (8002784 <UART_SetConfig+0x2c0>)
 800271c:	f5a0 7240 	sub.w	r2, r0, #768	@ 0x300
 8002720:	429a      	cmp	r2, r3
 8002722:	f63f af09 	bhi.w	8002538 <UART_SetConfig+0x74>
 8002726:	e774      	b.n	8002612 <UART_SetConfig+0x14e>
        pclk = HAL_RCC_GetPCLK1Freq();
 8002728:	f7ff f82e 	bl	8001788 <HAL_RCC_GetPCLK1Freq>
        break;
 800272c:	e7d2      	b.n	80026d4 <UART_SetConfig+0x210>
  UART_GETCLOCKSOURCE(huart, clocksource);
 800272e:	f5b3 6f40 	cmp.w	r3, #3072	@ 0xc00
 8002732:	f47f af01 	bne.w	8002538 <UART_SetConfig+0x74>
        pclk = (uint32_t) LSE_VALUE;
 8002736:	f44f 4000 	mov.w	r0, #32768	@ 0x8000
 800273a:	e7cf      	b.n	80026dc <UART_SetConfig+0x218>
        pclk = HAL_RCC_GetPCLK1Freq();
 800273c:	f7ff f824 	bl	8001788 <HAL_RCC_GetPCLK1Freq>
    if (pclk != 0U)
 8002740:	2800      	cmp	r0, #0
 8002742:	f43f af37 	beq.w	80025b4 <UART_SetConfig+0xf0>
      usartdiv = (uint32_t)(UART_DIV_SAMPLING8(pclk, huart->Init.BaudRate, huart->Init.ClockPrescaler));
 8002746:	6a65      	ldr	r5, [r4, #36]	@ 0x24
 8002748:	e76a      	b.n	8002620 <UART_SetConfig+0x15c>
        pclk = HAL_RCC_GetPCLK2Freq();
 800274a:	f7ff f82f 	bl	80017ac <HAL_RCC_GetPCLK2Freq>
        break;
 800274e:	e7f7      	b.n	8002740 <UART_SetConfig+0x27c>
        pclk = (uint32_t) HSI_VALUE;
 8002750:	480b      	ldr	r0, [pc, #44]	@ (8002780 <UART_SetConfig+0x2bc>)
 8002752:	e7c3      	b.n	80026dc <UART_SetConfig+0x218>
        pclk = HAL_RCC_GetSysClockFreq();
 8002754:	f7fe fedc 	bl	8001510 <HAL_RCC_GetSysClockFreq>
        break;
 8002758:	e7f2      	b.n	8002740 <UART_SetConfig+0x27c>
 800275a:	bf00      	nop
 800275c:	cfff69f3 	.word	0xcfff69f3
 8002760:	40008000 	.word	0x40008000
 8002764:	40013800 	.word	0x40013800
 8002768:	40004400 	.word	0x40004400
 800276c:	40004800 	.word	0x40004800
 8002770:	40004c00 	.word	0x40004c00
 8002774:	40005000 	.word	0x40005000
 8002778:	40021000 	.word	0x40021000
 800277c:	08002cd0 	.word	0x08002cd0
 8002780:	00f42400 	.word	0x00f42400
 8002784:	000ffcff 	.word	0x000ffcff

08002788 <UART_AdvFeatureConfig>:
  if (HAL_IS_BIT_SET(huart->AdvancedInit.AdvFeatureInit, UART_ADVFEATURE_SWAP_INIT))
 8002788:	6a83      	ldr	r3, [r0, #40]	@ 0x28
 800278a:	071a      	lsls	r2, r3, #28
{
 800278c:	b410      	push	{r4}
  if (HAL_IS_BIT_SET(huart->AdvancedInit.AdvFeatureInit, UART_ADVFEATURE_SWAP_INIT))
 800278e:	d506      	bpl.n	800279e <UART_AdvFeatureConfig+0x16>
    MODIFY_REG(huart->Instance->CR2, USART_CR2_SWAP, huart->AdvancedInit.Swap);
 8002790:	6801      	ldr	r1, [r0, #0]
 8002792:	6b84      	ldr	r4, [r0, #56]	@ 0x38
 8002794:	684a      	ldr	r2, [r1, #4]
 8002796:	f422 4200 	bic.w	r2, r2, #32768	@ 0x8000
 800279a:	4322      	orrs	r2, r4
 800279c:	604a      	str	r2, [r1, #4]
  if (HAL_IS_BIT_SET(huart->AdvancedInit.AdvFeatureInit, UART_ADVFEATURE_TXINVERT_INIT))
 800279e:	07dc      	lsls	r4, r3, #31
 80027a0:	d506      	bpl.n	80027b0 <UART_AdvFeatureConfig+0x28>
    MODIFY_REG(huart->Instance->CR2, USART_CR2_TXINV, huart->AdvancedInit.TxPinLevelInvert);
 80027a2:	6801      	ldr	r1, [r0, #0]
 80027a4:	6ac4      	ldr	r4, [r0, #44]	@ 0x2c
 80027a6:	684a      	ldr	r2, [r1, #4]
 80027a8:	f422 3200 	bic.w	r2, r2, #131072	@ 0x20000
 80027ac:	4322      	orrs	r2, r4
 80027ae:	604a      	str	r2, [r1, #4]
  if (HAL_IS_BIT_SET(huart->AdvancedInit.AdvFeatureInit, UART_ADVFEATURE_RXINVERT_INIT))
 80027b0:	0799      	lsls	r1, r3, #30
 80027b2:	d506      	bpl.n	80027c2 <UART_AdvFeatureConfig+0x3a>
    MODIFY_REG(huart->Instance->CR2, USART_CR2_RXINV, huart->AdvancedInit.RxPinLevelInvert);
 80027b4:	6801      	ldr	r1, [r0, #0]
 80027b6:	6b04      	ldr	r4, [r0, #48]	@ 0x30
 80027b8:	684a      	ldr	r2, [r1, #4]
 80027ba:	f422 3280 	bic.w	r2, r2, #65536	@ 0x10000
 80027be:	4322      	orrs	r2, r4
 80027c0:	604a      	str	r2, [r1, #4]
  if (HAL_IS_BIT_SET(huart->AdvancedInit.AdvFeatureInit, UART_ADVFEATURE_DATAINVERT_INIT))
 80027c2:	075a      	lsls	r2, r3, #29
 80027c4:	d506      	bpl.n	80027d4 <UART_AdvFeatureConfig+0x4c>
    MODIFY_REG(huart->Instance->CR2, USART_CR2_DATAINV, huart->AdvancedInit.DataInvert);
 80027c6:	6801      	ldr	r1, [r0, #0]
 80027c8:	6b44      	ldr	r4, [r0, #52]	@ 0x34
 80027ca:	684a      	ldr	r2, [r1, #4]
 80027cc:	f422 2280 	bic.w	r2, r2, #262144	@ 0x40000
 80027d0:	4322      	orrs	r2, r4
 80027d2:	604a      	str	r2, [r1, #4]
  if (HAL_IS_BIT_SET(huart->AdvancedInit.AdvFeatureInit, UART_ADVFEATURE_RXOVERRUNDISABLE_INIT))
 80027d4:	06dc      	lsls	r4, r3, #27
 80027d6:	d506      	bpl.n	80027e6 <UART_AdvFeatureConfig+0x5e>
    MODIFY_REG(huart->Instance->CR3, USART_CR3_OVRDIS, huart->AdvancedInit.OverrunDisable);
 80027d8:	6801      	ldr	r1, [r0, #0]
 80027da:	6bc4      	ldr	r4, [r0, #60]	@ 0x3c
 80027dc:	688a      	ldr	r2, [r1, #8]
 80027de:	f422 5280 	bic.w	r2, r2, #4096	@ 0x1000
 80027e2:	4322      	orrs	r2, r4
 80027e4:	608a      	str	r2, [r1, #8]
  if (HAL_IS_BIT_SET(huart->AdvancedInit.AdvFeatureInit, UART_ADVFEATURE_DMADISABLEONERROR_INIT))
 80027e6:	0699      	lsls	r1, r3, #26
 80027e8:	d506      	bpl.n	80027f8 <UART_AdvFeatureConfig+0x70>
    MODIFY_REG(huart->Instance->CR3, USART_CR3_DDRE, huart->AdvancedInit.DMADisableonRxError);
 80027ea:	6801      	ldr	r1, [r0, #0]
 80027ec:	6c04      	ldr	r4, [r0, #64]	@ 0x40
 80027ee:	688a      	ldr	r2, [r1, #8]
 80027f0:	f422 5200 	bic.w	r2, r2, #8192	@ 0x2000
 80027f4:	4322      	orrs	r2, r4
 80027f6:	608a      	str	r2, [r1, #8]
  if (HAL_IS_BIT_SET(huart->AdvancedInit.AdvFeatureInit, UART_ADVFEATURE_AUTOBAUDRATE_INIT))
 80027f8:	065a      	lsls	r2, r3, #25
 80027fa:	d509      	bpl.n	8002810 <UART_AdvFeatureConfig+0x88>
    MODIFY_REG(huart->Instance->CR2, USART_CR2_ABREN, huart->AdvancedInit.AutoBaudRateEnable);
 80027fc:	6801      	ldr	r1, [r0, #0]
 80027fe:	6c44      	ldr	r4, [r0, #68]	@ 0x44
 8002800:	684a      	ldr	r2, [r1, #4]
 8002802:	f422 1280 	bic.w	r2, r2, #1048576	@ 0x100000
 8002806:	4322      	orrs	r2, r4
    if (huart->AdvancedInit.AutoBaudRateEnable == UART_ADVFEATURE_AUTOBAUDRATE_ENABLE)
 8002808:	f5b4 1f80 	cmp.w	r4, #1048576	@ 0x100000
    MODIFY_REG(huart->Instance->CR2, USART_CR2_ABREN, huart->AdvancedInit.AutoBaudRateEnable);
 800280c:	604a      	str	r2, [r1, #4]
    if (huart->AdvancedInit.AutoBaudRateEnable == UART_ADVFEATURE_AUTOBAUDRATE_ENABLE)
 800280e:	d00b      	beq.n	8002828 <UART_AdvFeatureConfig+0xa0>
  if (HAL_IS_BIT_SET(huart->AdvancedInit.AdvFeatureInit, UART_ADVFEATURE_MSBFIRST_INIT))
 8002810:	061b      	lsls	r3, r3, #24
 8002812:	d506      	bpl.n	8002822 <UART_AdvFeatureConfig+0x9a>
    MODIFY_REG(huart->Instance->CR2, USART_CR2_MSBFIRST, huart->AdvancedInit.MSBFirst);
 8002814:	6802      	ldr	r2, [r0, #0]
 8002816:	6cc1      	ldr	r1, [r0, #76]	@ 0x4c
 8002818:	6853      	ldr	r3, [r2, #4]
 800281a:	f423 2300 	bic.w	r3, r3, #524288	@ 0x80000
 800281e:	430b      	orrs	r3, r1
 8002820:	6053      	str	r3, [r2, #4]
}
 8002822:	f85d 4b04 	ldr.w	r4, [sp], #4
 8002826:	4770      	bx	lr
      MODIFY_REG(huart->Instance->CR2, USART_CR2_ABRMODE, huart->AdvancedInit.AutoBaudRateMode);
 8002828:	684a      	ldr	r2, [r1, #4]
 800282a:	6c84      	ldr	r4, [r0, #72]	@ 0x48
 800282c:	f422 02c0 	bic.w	r2, r2, #6291456	@ 0x600000
 8002830:	4322      	orrs	r2, r4
 8002832:	604a      	str	r2, [r1, #4]
 8002834:	e7ec      	b.n	8002810 <UART_AdvFeatureConfig+0x88>
 8002836:	bf00      	nop

08002838 <UART_CheckIdleState>:
{
 8002838:	b538      	push	{r3, r4, r5, lr}
  huart->ErrorCode = HAL_UART_ERROR_NONE;
 800283a:	2300      	movs	r3, #0
{
 800283c:	4604      	mov	r4, r0
  huart->ErrorCode = HAL_UART_ERROR_NONE;
 800283e:	f8c0 3090 	str.w	r3, [r0, #144]	@ 0x90
  tickstart = HAL_GetTick();
 8002842:	f7fe f97d 	bl	8000b40 <HAL_GetTick>
  if ((huart->Instance->CR1 & USART_CR1_TE) == USART_CR1_TE)
 8002846:	6822      	ldr	r2, [r4, #0]
 8002848:	6813      	ldr	r3, [r2, #0]
 800284a:	071b      	lsls	r3, r3, #28
  tickstart = HAL_GetTick();
 800284c:	4605      	mov	r5, r0
  if ((huart->Instance->CR1 & USART_CR1_TE) == USART_CR1_TE)
 800284e:	d40f      	bmi.n	8002870 <UART_CheckIdleState+0x38>
  if ((huart->Instance->CR1 & USART_CR1_RE) == USART_CR1_RE)
 8002850:	6813      	ldr	r3, [r2, #0]
 8002852:	0759      	lsls	r1, r3, #29
 8002854:	d431      	bmi.n	80028ba <UART_CheckIdleState+0x82>
  huart->ReceptionType = HAL_UART_RECEPTION_STANDARD;
 8002856:	2300      	movs	r3, #0
  huart->gState = HAL_UART_STATE_READY;
 8002858:	2220      	movs	r2, #32
 800285a:	f8c4 2088 	str.w	r2, [r4, #136]	@ 0x88
  return HAL_OK;
 800285e:	4618      	mov	r0, r3
  huart->RxState = HAL_UART_STATE_READY;
 8002860:	f8c4 208c 	str.w	r2, [r4, #140]	@ 0x8c
  huart->ReceptionType = HAL_UART_RECEPTION_STANDARD;
 8002864:	66e3      	str	r3, [r4, #108]	@ 0x6c
  huart->RxEventType = HAL_UART_RXEVENT_TC;
 8002866:	6723      	str	r3, [r4, #112]	@ 0x70
      __HAL_UNLOCK(huart);
 8002868:	2300      	movs	r3, #0
 800286a:	f884 3084 	strb.w	r3, [r4, #132]	@ 0x84
}
 800286e:	bd38      	pop	{r3, r4, r5, pc}
  while ((__HAL_UART_GET_FLAG(huart, Flag) ? SET : RESET) == Status)
 8002870:	69d3      	ldr	r3, [r2, #28]
 8002872:	0298      	lsls	r0, r3, #10
 8002874:	d4ec      	bmi.n	8002850 <UART_CheckIdleState+0x18>
 8002876:	e00c      	b.n	8002892 <UART_CheckIdleState+0x5a>
      if ((READ_BIT(huart->Instance->CR1, USART_CR1_RE) != 0U) && (Flag != UART_FLAG_TXE) && (Flag != UART_FLAG_TC))
 8002878:	6819      	ldr	r1, [r3, #0]
 800287a:	0749      	lsls	r1, r1, #29
 800287c:	461a      	mov	r2, r3
 800287e:	d505      	bpl.n	800288c <UART_CheckIdleState+0x54>
        if (__HAL_UART_GET_FLAG(huart, UART_FLAG_ORE) == SET)
 8002880:	69d9      	ldr	r1, [r3, #28]
 8002882:	0708      	lsls	r0, r1, #28
 8002884:	d44a      	bmi.n	800291c <UART_CheckIdleState+0xe4>
        if (__HAL_UART_GET_FLAG(huart, UART_FLAG_RTOF) == SET)
 8002886:	69d9      	ldr	r1, [r3, #28]
 8002888:	0509      	lsls	r1, r1, #20
 800288a:	d475      	bmi.n	8002978 <UART_CheckIdleState+0x140>
  while ((__HAL_UART_GET_FLAG(huart, Flag) ? SET : RESET) == Status)
 800288c:	69db      	ldr	r3, [r3, #28]
 800288e:	0298      	lsls	r0, r3, #10
 8002890:	d4de      	bmi.n	8002850 <UART_CheckIdleState+0x18>
      if (((HAL_GetTick() - Tickstart) > Timeout) || (Timeout == 0U))
 8002892:	f7fe f955 	bl	8000b40 <HAL_GetTick>
 8002896:	1b43      	subs	r3, r0, r5
 8002898:	f1b3 7f00 	cmp.w	r3, #33554432	@ 0x2000000
      if ((READ_BIT(huart->Instance->CR1, USART_CR1_RE) != 0U) && (Flag != UART_FLAG_TXE) && (Flag != UART_FLAG_TC))
 800289c:	6823      	ldr	r3, [r4, #0]
      if (((HAL_GetTick() - Tickstart) > Timeout) || (Timeout == 0U))
 800289e:	d3eb      	bcc.n	8002878 <UART_CheckIdleState+0x40>
   __ASM volatile ("ldrex %0, %1" : "=r" (result) : "Q" (*addr) );
 80028a0:	e853 2f00 	ldrex	r2, [r3]
      ATOMIC_CLEAR_BIT(huart->Instance->CR1, (USART_CR1_TXEIE_TXFNFIE));
 80028a4:	f022 0280 	bic.w	r2, r2, #128	@ 0x80
   __ASM volatile ("strex %0, %2, %1" : "=&r" (result), "=Q" (*addr) : "r" (value) );
 80028a8:	e843 2100 	strex	r1, r2, [r3]
 80028ac:	2900      	cmp	r1, #0
 80028ae:	d1f7      	bne.n	80028a0 <UART_CheckIdleState+0x68>
      huart->gState = HAL_UART_STATE_READY;
 80028b0:	2320      	movs	r3, #32
 80028b2:	f8c4 3088 	str.w	r3, [r4, #136]	@ 0x88
      return HAL_TIMEOUT;
 80028b6:	2003      	movs	r0, #3
 80028b8:	e7d6      	b.n	8002868 <UART_CheckIdleState+0x30>
  while ((__HAL_UART_GET_FLAG(huart, Flag) ? SET : RESET) == Status)
 80028ba:	69d3      	ldr	r3, [r2, #28]
 80028bc:	025b      	lsls	r3, r3, #9
 80028be:	d4ca      	bmi.n	8002856 <UART_CheckIdleState+0x1e>
 80028c0:	e00d      	b.n	80028de <UART_CheckIdleState+0xa6>
      if ((READ_BIT(huart->Instance->CR1, USART_CR1_RE) != 0U) && (Flag != UART_FLAG_TXE) && (Flag != UART_FLAG_TC))
 80028c2:	681a      	ldr	r2, [r3, #0]
 80028c4:	0750      	lsls	r0, r2, #29
 80028c6:	d507      	bpl.n	80028d8 <UART_CheckIdleState+0xa0>
        if (__HAL_UART_GET_FLAG(huart, UART_FLAG_ORE) == SET)
 80028c8:	69da      	ldr	r2, [r3, #28]
 80028ca:	0711      	lsls	r1, r2, #28
 80028cc:	f100 8082 	bmi.w	80029d4 <UART_CheckIdleState+0x19c>
        if (__HAL_UART_GET_FLAG(huart, UART_FLAG_RTOF) == SET)
 80028d0:	69da      	ldr	r2, [r3, #28]
 80028d2:	0512      	lsls	r2, r2, #20
 80028d4:	f100 80ac 	bmi.w	8002a30 <UART_CheckIdleState+0x1f8>
  while ((__HAL_UART_GET_FLAG(huart, Flag) ? SET : RESET) == Status)
 80028d8:	69db      	ldr	r3, [r3, #28]
 80028da:	025b      	lsls	r3, r3, #9
 80028dc:	d4bb      	bmi.n	8002856 <UART_CheckIdleState+0x1e>
      if (((HAL_GetTick() - Tickstart) > Timeout) || (Timeout == 0U))
 80028de:	f7fe f92f 	bl	8000b40 <HAL_GetTick>
 80028e2:	1b43      	subs	r3, r0, r5
 80028e4:	f1b3 7f00 	cmp.w	r3, #33554432	@ 0x2000000
 80028e8:	6823      	ldr	r3, [r4, #0]
 80028ea:	d3ea      	bcc.n	80028c2 <UART_CheckIdleState+0x8a>
   __ASM volatile ("ldrex %0, %1" : "=r" (result) : "Q" (*addr) );
 80028ec:	e853 2f00 	ldrex	r2, [r3]
      ATOMIC_CLEAR_BIT(huart->Instance->CR1, (USART_CR1_RXNEIE_RXFNEIE | USART_CR1_PEIE));
 80028f0:	f422 7290 	bic.w	r2, r2, #288	@ 0x120
   __ASM volatile ("strex %0, %2, %1" : "=&r" (result), "=Q" (*addr) : "r" (value) );
 80028f4:	e843 2100 	strex	r1, r2, [r3]
 80028f8:	2900      	cmp	r1, #0
 80028fa:	d1f7      	bne.n	80028ec <UART_CheckIdleState+0xb4>
   __ASM volatile ("ldrex %0, %1" : "=r" (result) : "Q" (*addr) );
 80028fc:	f103 0208 	add.w	r2, r3, #8
 8002900:	e852 2f00 	ldrex	r2, [r2]
      ATOMIC_CLEAR_BIT(huart->Instance->CR3, USART_CR3_EIE);
 8002904:	f022 0201 	bic.w	r2, r2, #1
   __ASM volatile ("strex %0, %2, %1" : "=&r" (result), "=Q" (*addr) : "r" (value) );
 8002908:	f103 0008 	add.w	r0, r3, #8
 800290c:	e840 2100 	strex	r1, r2, [r0]
 8002910:	2900      	cmp	r1, #0
 8002912:	d1f3      	bne.n	80028fc <UART_CheckIdleState+0xc4>
      huart->RxState = HAL_UART_STATE_READY;
 8002914:	2320      	movs	r3, #32
 8002916:	f8c4 308c 	str.w	r3, [r4, #140]	@ 0x8c
      return HAL_TIMEOUT;
 800291a:	e7cc      	b.n	80028b6 <UART_CheckIdleState+0x7e>
          __HAL_UART_CLEAR_FLAG(huart, UART_CLEAR_OREF);
 800291c:	2208      	movs	r2, #8
 800291e:	621a      	str	r2, [r3, #32]
   __ASM volatile ("ldrex %0, %1" : "=r" (result) : "Q" (*addr) );
 8002920:	e853 2f00 	ldrex	r2, [r3]
  ATOMIC_CLEAR_BIT(huart->Instance->CR1, (USART_CR1_RXNEIE_RXFNEIE | USART_CR1_PEIE));
 8002924:	f422 7290 	bic.w	r2, r2, #288	@ 0x120
   __ASM volatile ("strex %0, %2, %1" : "=&r" (result), "=Q" (*addr) : "r" (value) );
 8002928:	e843 2100 	strex	r1, r2, [r3]
 800292c:	2900      	cmp	r1, #0
 800292e:	d1f7      	bne.n	8002920 <UART_CheckIdleState+0xe8>
  ATOMIC_CLEAR_BIT(huart->Instance->CR3, (USART_CR3_EIE | USART_CR3_RXFTIE));
 8002930:	4856      	ldr	r0, [pc, #344]	@ (8002a8c <UART_CheckIdleState+0x254>)
   __ASM volatile ("ldrex %0, %1" : "=r" (result) : "Q" (*addr) );
 8002932:	f103 0208 	add.w	r2, r3, #8
 8002936:	e852 2f00 	ldrex	r2, [r2]
 800293a:	4002      	ands	r2, r0
   __ASM volatile ("strex %0, %2, %1" : "=&r" (result), "=Q" (*addr) : "r" (value) );
 800293c:	f103 0508 	add.w	r5, r3, #8
 8002940:	e845 2100 	strex	r1, r2, [r5]
 8002944:	2900      	cmp	r1, #0
 8002946:	d1f4      	bne.n	8002932 <UART_CheckIdleState+0xfa>
  if (huart->ReceptionType == HAL_UART_RECEPTION_TOIDLE)
 8002948:	6ee2      	ldr	r2, [r4, #108]	@ 0x6c
 800294a:	2a01      	cmp	r2, #1
 800294c:	d00b      	beq.n	8002966 <UART_CheckIdleState+0x12e>
  huart->ReceptionType = HAL_UART_RECEPTION_STANDARD;
 800294e:	2200      	movs	r2, #0
  huart->RxState = HAL_UART_STATE_READY;
 8002950:	2020      	movs	r0, #32
          huart->ErrorCode = HAL_UART_ERROR_ORE;
 8002952:	2108      	movs	r1, #8
  huart->RxState = HAL_UART_STATE_READY;
 8002954:	f8c4 008c 	str.w	r0, [r4, #140]	@ 0x8c
  huart->RxISR = NULL;
 8002958:	6762      	str	r2, [r4, #116]	@ 0x74
  huart->ReceptionType = HAL_UART_RECEPTION_STANDARD;
 800295a:	66e2      	str	r2, [r4, #108]	@ 0x6c
          __HAL_UNLOCK(huart);
 800295c:	f884 2084 	strb.w	r2, [r4, #132]	@ 0x84
          huart->ErrorCode = HAL_UART_ERROR_ORE;
 8002960:	f8c4 1090 	str.w	r1, [r4, #144]	@ 0x90
          return HAL_ERROR;
 8002964:	e79c      	b.n	80028a0 <UART_CheckIdleState+0x68>
   __ASM volatile ("ldrex %0, %1" : "=r" (result) : "Q" (*addr) );
 8002966:	e853 2f00 	ldrex	r2, [r3]
    ATOMIC_CLEAR_BIT(huart->Instance->CR1, USART_CR1_IDLEIE);
 800296a:	f022 0210 	bic.w	r2, r2, #16
   __ASM volatile ("strex %0, %2, %1" : "=&r" (result), "=Q" (*addr) : "r" (value) );
 800296e:	e843 2100 	strex	r1, r2, [r3]
 8002972:	2900      	cmp	r1, #0
 8002974:	d1f7      	bne.n	8002966 <UART_CheckIdleState+0x12e>
 8002976:	e7ea      	b.n	800294e <UART_CheckIdleState+0x116>
          __HAL_UART_CLEAR_FLAG(huart, UART_CLEAR_RTOF);
 8002978:	f44f 6200 	mov.w	r2, #2048	@ 0x800
 800297c:	621a      	str	r2, [r3, #32]
   __ASM volatile ("ldrex %0, %1" : "=r" (result) : "Q" (*addr) );
 800297e:	e853 2f00 	ldrex	r2, [r3]
  ATOMIC_CLEAR_BIT(huart->Instance->CR1, (USART_CR1_RXNEIE_RXFNEIE | USART_CR1_PEIE));
 8002982:	f422 7290 	bic.w	r2, r2, #288	@ 0x120
   __ASM volatile ("strex %0, %2, %1" : "=&r" (result), "=Q" (*addr) : "r" (value) );
 8002986:	e843 2100 	strex	r1, r2, [r3]
 800298a:	2900      	cmp	r1, #0
 800298c:	d1f7      	bne.n	800297e <UART_CheckIdleState+0x146>
  ATOMIC_CLEAR_BIT(huart->Instance->CR3, (USART_CR3_EIE | USART_CR3_RXFTIE));
 800298e:	483f      	ldr	r0, [pc, #252]	@ (8002a8c <UART_CheckIdleState+0x254>)
   __ASM volatile ("ldrex %0, %1" : "=r" (result) : "Q" (*addr) );
 8002990:	f103 0208 	add.w	r2, r3, #8
 8002994:	e852 2f00 	ldrex	r2, [r2]
 8002998:	4002      	ands	r2, r0
   __ASM volatile ("strex %0, %2, %1" : "=&r" (result), "=Q" (*addr) : "r" (value) );
 800299a:	f103 0508 	add.w	r5, r3, #8
 800299e:	e845 2100 	strex	r1, r2, [r5]
 80029a2:	2900      	cmp	r1, #0
 80029a4:	d1f4      	bne.n	8002990 <UART_CheckIdleState+0x158>
  if (huart->ReceptionType == HAL_UART_RECEPTION_TOIDLE)
 80029a6:	6ee2      	ldr	r2, [r4, #108]	@ 0x6c
 80029a8:	2a01      	cmp	r2, #1
 80029aa:	d00a      	beq.n	80029c2 <UART_CheckIdleState+0x18a>
  huart->ReceptionType = HAL_UART_RECEPTION_STANDARD;
 80029ac:	2200      	movs	r2, #0
  huart->RxState = HAL_UART_STATE_READY;
 80029ae:	2120      	movs	r1, #32
 80029b0:	f8c4 108c 	str.w	r1, [r4, #140]	@ 0x8c
  huart->RxISR = NULL;
 80029b4:	6762      	str	r2, [r4, #116]	@ 0x74
  huart->ReceptionType = HAL_UART_RECEPTION_STANDARD;
 80029b6:	66e2      	str	r2, [r4, #108]	@ 0x6c
          __HAL_UNLOCK(huart);
 80029b8:	f884 2084 	strb.w	r2, [r4, #132]	@ 0x84
          huart->ErrorCode = HAL_UART_ERROR_RTO;
 80029bc:	f8c4 1090 	str.w	r1, [r4, #144]	@ 0x90
          return HAL_TIMEOUT;
 80029c0:	e76e      	b.n	80028a0 <UART_CheckIdleState+0x68>
   __ASM volatile ("ldrex %0, %1" : "=r" (result) : "Q" (*addr) );
 80029c2:	e853 2f00 	ldrex	r2, [r3]
    ATOMIC_CLEAR_BIT(huart->Instance->CR1, USART_CR1_IDLEIE);
 80029c6:	f022 0210 	bic.w	r2, r2, #16
   __ASM volatile ("strex %0, %2, %1" : "=&r" (result), "=Q" (*addr) : "r" (value) );
 80029ca:	e843 2100 	strex	r1, r2, [r3]
 80029ce:	2900      	cmp	r1, #0
 80029d0:	d1f7      	bne.n	80029c2 <UART_CheckIdleState+0x18a>
 80029d2:	e7eb      	b.n	80029ac <UART_CheckIdleState+0x174>
          __HAL_UART_CLEAR_FLAG(huart, UART_CLEAR_OREF);
 80029d4:	2208      	movs	r2, #8
 80029d6:	621a      	str	r2, [r3, #32]
   __ASM volatile ("ldrex %0, %1" : "=r" (result) : "Q" (*addr) );
 80029d8:	e853 2f00 	ldrex	r2, [r3]
  ATOMIC_CLEAR_BIT(huart->Instance->CR1, (USART_CR1_RXNEIE_RXFNEIE | USART_CR1_PEIE));
 80029dc:	f422 7290 	bic.w	r2, r2, #288	@ 0x120
   __ASM volatile ("strex %0, %2, %1" : "=&r" (result), "=Q" (*addr) : "r" (value) );
 80029e0:	e843 2100 	strex	r1, r2, [r3]
 80029e4:	2900      	cmp	r1, #0
 80029e6:	d1f7      	bne.n	80029d8 <UART_CheckIdleState+0x1a0>
  ATOMIC_CLEAR_BIT(huart->Instance->CR3, (USART_CR3_EIE | USART_CR3_RXFTIE));
 80029e8:	4828      	ldr	r0, [pc, #160]	@ (8002a8c <UART_CheckIdleState+0x254>)
   __ASM volatile ("ldrex %0, %1" : "=r" (result) : "Q" (*addr) );
 80029ea:	f103 0208 	add.w	r2, r3, #8
 80029ee:	e852 2f00 	ldrex	r2, [r2]
 80029f2:	4002      	ands	r2, r0
   __ASM volatile ("strex %0, %2, %1" : "=&r" (result), "=Q" (*addr) : "r" (value) );
 80029f4:	f103 0508 	add.w	r5, r3, #8
 80029f8:	e845 2100 	strex	r1, r2, [r5]
 80029fc:	2900      	cmp	r1, #0
 80029fe:	d1f4      	bne.n	80029ea <UART_CheckIdleState+0x1b2>
  if (huart->ReceptionType == HAL_UART_RECEPTION_TOIDLE)
 8002a00:	6ee2      	ldr	r2, [r4, #108]	@ 0x6c
 8002a02:	2a01      	cmp	r2, #1
 8002a04:	d00b      	beq.n	8002a1e <UART_CheckIdleState+0x1e6>
  huart->ReceptionType = HAL_UART_RECEPTION_STANDARD;
 8002a06:	2200      	movs	r2, #0
  huart->RxState = HAL_UART_STATE_READY;
 8002a08:	2020      	movs	r0, #32
          huart->ErrorCode = HAL_UART_ERROR_ORE;
 8002a0a:	2108      	movs	r1, #8
  huart->RxState = HAL_UART_STATE_READY;
 8002a0c:	f8c4 008c 	str.w	r0, [r4, #140]	@ 0x8c
  huart->RxISR = NULL;
 8002a10:	6762      	str	r2, [r4, #116]	@ 0x74
  huart->ReceptionType = HAL_UART_RECEPTION_STANDARD;
 8002a12:	66e2      	str	r2, [r4, #108]	@ 0x6c
          __HAL_UNLOCK(huart);
 8002a14:	f884 2084 	strb.w	r2, [r4, #132]	@ 0x84
          huart->ErrorCode = HAL_UART_ERROR_ORE;
 8002a18:	f8c4 1090 	str.w	r1, [r4, #144]	@ 0x90
          return HAL_ERROR;
 8002a1c:	e766      	b.n	80028ec <UART_CheckIdleState+0xb4>
   __ASM volatile ("ldrex %0, %1" : "=r" (result) : "Q" (*addr) );
 8002a1e:	e853 2f00 	ldrex	r2, [r3]
    ATOMIC_CLEAR_BIT(huart->Instance->CR1, USART_CR1_IDLEIE);
 8002a22:	f022 0210 	bic.w	r2, r2, #16
   __ASM volatile ("strex %0, %2, %1" : "=&r" (result), "=Q" (*addr) : "r" (value) );
 8002a26:	e843 2100 	strex	r1, r2, [r3]
 8002a2a:	2900      	cmp	r1, #0
 8002a2c:	d1f7      	bne.n	8002a1e <UART_CheckIdleState+0x1e6>
 8002a2e:	e7ea      	b.n	8002a06 <UART_CheckIdleState+0x1ce>
          __HAL_UART_CLEAR_FLAG(huart, UART_CLEAR_RTOF);
 8002a30:	f44f 6200 	mov.w	r2, #2048	@ 0x800
 8002a34:	621a      	str	r2, [r3, #32]
   __ASM volatile ("ldrex %0, %1" : "=r" (result) : "Q" (*addr) );
 8002a36:	e853 2f00 	ldrex	r2, [r3]
  ATOMIC_CLEAR_BIT(huart->Instance->CR1, (USART_CR1_RXNEIE_RXFNEIE | USART_CR1_PEIE));
 8002a3a:	f422 7290 	bic.w	r2, r2, #288	@ 0x120
   __ASM volatile ("strex %0, %2, %1" : "=&r" (result), "=Q" (*addr) : "r" (value) );
 8002a3e:	e843 2100 	strex	r1, r2, [r3]
 8002a42:	2900      	cmp	r1, #0
 8002a44:	d1f7      	bne.n	8002a36 <UART_CheckIdleState+0x1fe>
  ATOMIC_CLEAR_BIT(huart->Instance->CR3, (USART_CR3_EIE | USART_CR3_RXFTIE));
 8002a46:	4811      	ldr	r0, [pc, #68]	@ (8002a8c <UART_CheckIdleState+0x254>)
   __ASM volatile ("ldrex %0, %1" : "=r" (result) : "Q" (*addr) );
 8002a48:	f103 0208 	add.w	r2, r3, #8
 8002a4c:	e852 2f00 	ldrex	r2, [r2]
 8002a50:	4002      	ands	r2, r0
   __ASM volatile ("strex %0, %2, %1" : "=&r" (result), "=Q" (*addr) : "r" (value) );
 8002a52:	f103 0508 	add.w	r5, r3, #8
 8002a56:	e845 2100 	strex	r1, r2, [r5]
 8002a5a:	2900      	cmp	r1, #0
 8002a5c:	d1f4      	bne.n	8002a48 <UART_CheckIdleState+0x210>
  if (huart->ReceptionType == HAL_UART_RECEPTION_TOIDLE)
 8002a5e:	6ee2      	ldr	r2, [r4, #108]	@ 0x6c
 8002a60:	2a01      	cmp	r2, #1
 8002a62:	d00a      	beq.n	8002a7a <UART_CheckIdleState+0x242>
  huart->ReceptionType = HAL_UART_RECEPTION_STANDARD;
 8002a64:	2200      	movs	r2, #0
  huart->RxState = HAL_UART_STATE_READY;
 8002a66:	2120      	movs	r1, #32
 8002a68:	f8c4 108c 	str.w	r1, [r4, #140]	@ 0x8c
  huart->RxISR = NULL;
 8002a6c:	6762      	str	r2, [r4, #116]	@ 0x74
  huart->ReceptionType = HAL_UART_RECEPTION_STANDARD;
 8002a6e:	66e2      	str	r2, [r4, #108]	@ 0x6c
          __HAL_UNLOCK(huart);
 8002a70:	f884 2084 	strb.w	r2, [r4, #132]	@ 0x84
          huart->ErrorCode = HAL_UART_ERROR_RTO;
 8002a74:	f8c4 1090 	str.w	r1, [r4, #144]	@ 0x90
          return HAL_TIMEOUT;
 8002a78:	e738      	b.n	80028ec <UART_CheckIdleState+0xb4>
   __ASM volatile ("ldrex %0, %1" : "=r" (result) : "Q" (*addr) );
 8002a7a:	e853 2f00 	ldrex	r2, [r3]
    ATOMIC_CLEAR_BIT(huart->Instance->CR1, USART_CR1_IDLEIE);
 8002a7e:	f022 0210 	bic.w	r2, r2, #16
   __ASM volatile ("strex %0, %2, %1" : "=&r" (result), "=Q" (*addr) : "r" (value) );
 8002a82:	e843 2100 	strex	r1, r2, [r3]
 8002a86:	2900      	cmp	r1, #0
 8002a88:	d1f7      	bne.n	8002a7a <UART_CheckIdleState+0x242>
 8002a8a:	e7eb      	b.n	8002a64 <UART_CheckIdleState+0x22c>
 8002a8c:	effffffe 	.word	0xeffffffe

08002a90 <HAL_UART_Init>:
  if (huart == NULL)
 8002a90:	b380      	cbz	r0, 8002af4 <HAL_UART_Init+0x64>
  if (huart->gState == HAL_UART_STATE_RESET)
 8002a92:	f8d0 3088 	ldr.w	r3, [r0, #136]	@ 0x88
{
 8002a96:	b510      	push	{r4, lr}
 8002a98:	4604      	mov	r4, r0
  if (huart->gState == HAL_UART_STATE_RESET)
 8002a9a:	b333      	cbz	r3, 8002aea <HAL_UART_Init+0x5a>
  __HAL_UART_DISABLE(huart);
 8002a9c:	6822      	ldr	r2, [r4, #0]
  if (huart->AdvancedInit.AdvFeatureInit != UART_ADVFEATURE_NO_INIT)
 8002a9e:	6aa1      	ldr	r1, [r4, #40]	@ 0x28
  huart->gState = HAL_UART_STATE_BUSY;
 8002aa0:	2324      	movs	r3, #36	@ 0x24
 8002aa2:	f8c4 3088 	str.w	r3, [r4, #136]	@ 0x88
  __HAL_UART_DISABLE(huart);
 8002aa6:	6813      	ldr	r3, [r2, #0]
 8002aa8:	f023 0301 	bic.w	r3, r3, #1
 8002aac:	6013      	str	r3, [r2, #0]
  if (huart->AdvancedInit.AdvFeatureInit != UART_ADVFEATURE_NO_INIT)
 8002aae:	b9c1      	cbnz	r1, 8002ae2 <HAL_UART_Init+0x52>
  if (UART_SetConfig(huart) == HAL_ERROR)
 8002ab0:	4620      	mov	r0, r4
 8002ab2:	f7ff fd07 	bl	80024c4 <UART_SetConfig>
 8002ab6:	2801      	cmp	r0, #1
 8002ab8:	d011      	beq.n	8002ade <HAL_UART_Init+0x4e>
  CLEAR_BIT(huart->Instance->CR2, (USART_CR2_LINEN | USART_CR2_CLKEN));
 8002aba:	6823      	ldr	r3, [r4, #0]
 8002abc:	685a      	ldr	r2, [r3, #4]
 8002abe:	f422 4290 	bic.w	r2, r2, #18432	@ 0x4800
 8002ac2:	605a      	str	r2, [r3, #4]
  CLEAR_BIT(huart->Instance->CR3, (USART_CR3_SCEN | USART_CR3_HDSEL | USART_CR3_IREN));
 8002ac4:	689a      	ldr	r2, [r3, #8]
 8002ac6:	f022 022a 	bic.w	r2, r2, #42	@ 0x2a
 8002aca:	609a      	str	r2, [r3, #8]
  __HAL_UART_ENABLE(huart);
 8002acc:	681a      	ldr	r2, [r3, #0]
 8002ace:	f042 0201 	orr.w	r2, r2, #1
  return (UART_CheckIdleState(huart));
 8002ad2:	4620      	mov	r0, r4
  __HAL_UART_ENABLE(huart);
 8002ad4:	601a      	str	r2, [r3, #0]
}
 8002ad6:	e8bd 4010 	ldmia.w	sp!, {r4, lr}
  return (UART_CheckIdleState(huart));
 8002ada:	f7ff bead 	b.w	8002838 <UART_CheckIdleState>
}
 8002ade:	2001      	movs	r0, #1
 8002ae0:	bd10      	pop	{r4, pc}
    UART_AdvFeatureConfig(huart);
 8002ae2:	4620      	mov	r0, r4
 8002ae4:	f7ff fe50 	bl	8002788 <UART_AdvFeatureConfig>
 8002ae8:	e7e2      	b.n	8002ab0 <HAL_UART_Init+0x20>
    huart->Lock = HAL_UNLOCKED;
 8002aea:	f880 3084 	strb.w	r3, [r0, #132]	@ 0x84
    HAL_UART_MspInit(huart);
 8002aee:	f7fd fe4f 	bl	8000790 <HAL_UART_MspInit>
 8002af2:	e7d3      	b.n	8002a9c <HAL_UART_Init+0xc>
}
 8002af4:	2001      	movs	r0, #1
 8002af6:	4770      	bx	lr

08002af8 <HAL_UARTEx_WakeupCallback>:
  UNUSED(huart);

  /* NOTE : This function should not be modified, when the callback is needed,
            the HAL_UARTEx_WakeupCallback can be implemented in the user file.
   */
}
 8002af8:	4770      	bx	lr
 8002afa:	bf00      	nop

08002afc <HAL_UARTEx_RxFifoFullCallback>:
/**
  * @brief  UART RX Fifo full callback.
  * @param  huart UART handle.
  * @retval None
  */
__weak void HAL_UARTEx_RxFifoFullCallback(UART_HandleTypeDef *huart)
 8002afc:	4770      	bx	lr
 8002afe:	bf00      	nop

08002b00 <HAL_UARTEx_TxFifoEmptyCallback>:
/**
  * @brief  UART TX Fifo empty callback.
  * @param  huart UART handle.
  * @retval None
  */
__weak void HAL_UARTEx_TxFifoEmptyCallback(UART_HandleTypeDef *huart)
 8002b00:	4770      	bx	lr
 8002b02:	bf00      	nop

08002b04 <HAL_UARTEx_DisableFifoMode>:

  /* Check parameters */
  assert_param(IS_UART_FIFO_INSTANCE(huart->Instance));

  /* Process Locked */
  __HAL_LOCK(huart);
 8002b04:	f890 3084 	ldrb.w	r3, [r0, #132]	@ 0x84
 8002b08:	2b01      	cmp	r3, #1
 8002b0a:	d017      	beq.n	8002b3c <HAL_UARTEx_DisableFifoMode+0x38>

  huart->gState = HAL_UART_STATE_BUSY;

  /* Save actual UART configuration */
  tmpcr1 = READ_REG(huart->Instance->CR1);
 8002b0c:	6802      	ldr	r2, [r0, #0]
  huart->gState = HAL_UART_STATE_BUSY;
 8002b0e:	2324      	movs	r3, #36	@ 0x24
{
 8002b10:	b410      	push	{r4}
  huart->gState = HAL_UART_STATE_BUSY;
 8002b12:	f8c0 3088 	str.w	r3, [r0, #136]	@ 0x88
  tmpcr1 = READ_REG(huart->Instance->CR1);
 8002b16:	6811      	ldr	r1, [r2, #0]

  /* Disable UART */
  __HAL_UART_DISABLE(huart);
 8002b18:	6814      	ldr	r4, [r2, #0]

  /* Disable FIFO mode */
  CLEAR_BIT(tmpcr1, USART_CR1_FIFOEN);
  huart->FifoMode = UART_FIFOMODE_DISABLE;
 8002b1a:	2300      	movs	r3, #0
  __HAL_UART_DISABLE(huart);
 8002b1c:	f024 0401 	bic.w	r4, r4, #1
  CLEAR_BIT(tmpcr1, USART_CR1_FIFOEN);
 8002b20:	f021 5100 	bic.w	r1, r1, #536870912	@ 0x20000000
  __HAL_UART_DISABLE(huart);
 8002b24:	6014      	str	r4, [r2, #0]
  huart->FifoMode = UART_FIFOMODE_DISABLE;
 8002b26:	6643      	str	r3, [r0, #100]	@ 0x64

  /* Restore UART configuration */
  WRITE_REG(huart->Instance->CR1, tmpcr1);
 8002b28:	6011      	str	r1, [r2, #0]

  huart->gState = HAL_UART_STATE_READY;

  /* Process Unlocked */
  __HAL_UNLOCK(huart);
 8002b2a:	f880 3084 	strb.w	r3, [r0, #132]	@ 0x84
  huart->gState = HAL_UART_STATE_READY;
 8002b2e:	2220      	movs	r2, #32
 8002b30:	f8c0 2088 	str.w	r2, [r0, #136]	@ 0x88

  return HAL_OK;
}
 8002b34:	f85d 4b04 	ldr.w	r4, [sp], #4
  return HAL_OK;
 8002b38:	4618      	mov	r0, r3
}
 8002b3a:	4770      	bx	lr
  __HAL_LOCK(huart);
 8002b3c:	2002      	movs	r0, #2
}
 8002b3e:	4770      	bx	lr

08002b40 <HAL_UARTEx_SetTxFifoThreshold>:
  /* Check parameters */
  assert_param(IS_UART_FIFO_INSTANCE(huart->Instance));
  assert_param(IS_UART_TXFIFO_THRESHOLD(Threshold));

  /* Process Locked */
  __HAL_LOCK(huart);
 8002b40:	f890 2084 	ldrb.w	r2, [r0, #132]	@ 0x84
 8002b44:	2a01      	cmp	r2, #1
 8002b46:	d037      	beq.n	8002bb8 <HAL_UARTEx_SetTxFifoThreshold+0x78>

  huart->gState = HAL_UART_STATE_BUSY;
 8002b48:	4603      	mov	r3, r0

  /* Save actual UART configuration */
  tmpcr1 = READ_REG(huart->Instance->CR1);
 8002b4a:	6802      	ldr	r2, [r0, #0]
  huart->gState = HAL_UART_STATE_BUSY;
 8002b4c:	2024      	movs	r0, #36	@ 0x24
{
 8002b4e:	b530      	push	{r4, r5, lr}
  huart->gState = HAL_UART_STATE_BUSY;
 8002b50:	f8c3 0088 	str.w	r0, [r3, #136]	@ 0x88
  tmpcr1 = READ_REG(huart->Instance->CR1);
 8002b54:	6814      	ldr	r4, [r2, #0]

  /* Disable UART */
  __HAL_UART_DISABLE(huart);
 8002b56:	6810      	ldr	r0, [r2, #0]
 8002b58:	f020 0001 	bic.w	r0, r0, #1
 8002b5c:	6010      	str	r0, [r2, #0]

  /* Update TX threshold configuration */
  MODIFY_REG(huart->Instance->CR3, USART_CR3_TXFTCFG, Threshold);
 8002b5e:	6890      	ldr	r0, [r2, #8]
 8002b60:	f020 4060 	bic.w	r0, r0, #3758096384	@ 0xe0000000
 8002b64:	4301      	orrs	r1, r0
  uint8_t rx_fifo_threshold;
  uint8_t tx_fifo_threshold;
  static const uint8_t numerator[] = {1U, 1U, 1U, 3U, 7U, 1U, 0U, 0U};
  static const uint8_t denominator[] = {8U, 4U, 2U, 4U, 8U, 1U, 1U, 1U};

  if (huart->FifoMode == UART_FIFOMODE_DISABLE)
 8002b66:	6e58      	ldr	r0, [r3, #100]	@ 0x64
  MODIFY_REG(huart->Instance->CR3, USART_CR3_TXFTCFG, Threshold);
 8002b68:	6091      	str	r1, [r2, #8]
  if (huart->FifoMode == UART_FIFOMODE_DISABLE)
 8002b6a:	b310      	cbz	r0, 8002bb2 <HAL_UARTEx_SetTxFifoThreshold+0x72>
  }
  else
  {
    rx_fifo_depth = RX_FIFO_DEPTH;
    tx_fifo_depth = TX_FIFO_DEPTH;
    rx_fifo_threshold = (uint8_t)(READ_BIT(huart->Instance->CR3, USART_CR3_RXFTCFG) >> USART_CR3_RXFTCFG_Pos);
 8002b6c:	6891      	ldr	r1, [r2, #8]
    tx_fifo_threshold = (uint8_t)(READ_BIT(huart->Instance->CR3, USART_CR3_TXFTCFG) >> USART_CR3_TXFTCFG_Pos);
 8002b6e:	6890      	ldr	r0, [r2, #8]
    huart->NbTxDataToProcess = ((uint16_t)tx_fifo_depth * numerator[tx_fifo_threshold]) /
                               (uint16_t)denominator[tx_fifo_threshold];
 8002b70:	4d12      	ldr	r5, [pc, #72]	@ (8002bbc <HAL_UARTEx_SetTxFifoThreshold+0x7c>)
    huart->NbRxDataToProcess = ((uint16_t)rx_fifo_depth * numerator[rx_fifo_threshold]) /
 8002b72:	f3c1 6c42 	ubfx	ip, r1, #25, #3
    tx_fifo_threshold = (uint8_t)(READ_BIT(huart->Instance->CR3, USART_CR3_TXFTCFG) >> USART_CR3_TXFTCFG_Pos);
 8002b76:	ea4f 7e50 	mov.w	lr, r0, lsr #29
    huart->NbTxDataToProcess = ((uint16_t)tx_fifo_depth * numerator[tx_fifo_threshold]) /
 8002b7a:	4911      	ldr	r1, [pc, #68]	@ (8002bc0 <HAL_UARTEx_SetTxFifoThreshold+0x80>)
 8002b7c:	f811 000e 	ldrb.w	r0, [r1, lr]
    huart->NbRxDataToProcess = ((uint16_t)rx_fifo_depth * numerator[rx_fifo_threshold]) /
 8002b80:	f811 100c 	ldrb.w	r1, [r1, ip]
                               (uint16_t)denominator[tx_fifo_threshold];
 8002b84:	f815 e00e 	ldrb.w	lr, [r5, lr]
                               (uint16_t)denominator[rx_fifo_threshold];
 8002b88:	f815 500c 	ldrb.w	r5, [r5, ip]
    huart->NbTxDataToProcess = ((uint16_t)tx_fifo_depth * numerator[tx_fifo_threshold]) /
 8002b8c:	00c0      	lsls	r0, r0, #3
    huart->NbRxDataToProcess = ((uint16_t)rx_fifo_depth * numerator[rx_fifo_threshold]) /
 8002b8e:	00c9      	lsls	r1, r1, #3
    huart->NbTxDataToProcess = ((uint16_t)tx_fifo_depth * numerator[tx_fifo_threshold]) /
 8002b90:	fbb0 f0fe 	udiv	r0, r0, lr
    huart->NbRxDataToProcess = ((uint16_t)rx_fifo_depth * numerator[rx_fifo_threshold]) /
 8002b94:	fbb1 f1f5 	udiv	r1, r1, r5
 8002b98:	f8a3 1068 	strh.w	r1, [r3, #104]	@ 0x68
  __HAL_UNLOCK(huart);
 8002b9c:	2100      	movs	r1, #0
 8002b9e:	f8a3 006a 	strh.w	r0, [r3, #106]	@ 0x6a
  huart->gState = HAL_UART_STATE_READY;
 8002ba2:	2520      	movs	r5, #32
  WRITE_REG(huart->Instance->CR1, tmpcr1);
 8002ba4:	6014      	str	r4, [r2, #0]
  __HAL_UNLOCK(huart);
 8002ba6:	f883 1084 	strb.w	r1, [r3, #132]	@ 0x84
  return HAL_OK;
 8002baa:	4608      	mov	r0, r1
  huart->gState = HAL_UART_STATE_READY;
 8002bac:	f8c3 5088 	str.w	r5, [r3, #136]	@ 0x88
}
 8002bb0:	bd30      	pop	{r4, r5, pc}
    huart->NbRxDataToProcess = 1U;
 8002bb2:	2101      	movs	r1, #1
    huart->NbTxDataToProcess = 1U;
 8002bb4:	4608      	mov	r0, r1
 8002bb6:	e7ef      	b.n	8002b98 <HAL_UARTEx_SetTxFifoThreshold+0x58>
  __HAL_LOCK(huart);
 8002bb8:	2002      	movs	r0, #2
}
 8002bba:	4770      	bx	lr
 8002bbc:	08002ce8 	.word	0x08002ce8
 8002bc0:	08002cf0 	.word	0x08002cf0

08002bc4 <HAL_UARTEx_SetRxFifoThreshold>:
  __HAL_LOCK(huart);
 8002bc4:	f890 2084 	ldrb.w	r2, [r0, #132]	@ 0x84
 8002bc8:	2a01      	cmp	r2, #1
 8002bca:	d037      	beq.n	8002c3c <HAL_UARTEx_SetRxFifoThreshold+0x78>
  huart->gState = HAL_UART_STATE_BUSY;
 8002bcc:	4603      	mov	r3, r0
  tmpcr1 = READ_REG(huart->Instance->CR1);
 8002bce:	6802      	ldr	r2, [r0, #0]
  huart->gState = HAL_UART_STATE_BUSY;
 8002bd0:	2024      	movs	r0, #36	@ 0x24
{
 8002bd2:	b530      	push	{r4, r5, lr}
  huart->gState = HAL_UART_STATE_BUSY;
 8002bd4:	f8c3 0088 	str.w	r0, [r3, #136]	@ 0x88
  tmpcr1 = READ_REG(huart->Instance->CR1);
 8002bd8:	6814      	ldr	r4, [r2, #0]
  __HAL_UART_DISABLE(huart);
 8002bda:	6810      	ldr	r0, [r2, #0]
 8002bdc:	f020 0001 	bic.w	r0, r0, #1
 8002be0:	6010      	str	r0, [r2, #0]
  MODIFY_REG(huart->Instance->CR3, USART_CR3_RXFTCFG, Threshold);
 8002be2:	6890      	ldr	r0, [r2, #8]
 8002be4:	f020 6060 	bic.w	r0, r0, #234881024	@ 0xe000000
 8002be8:	4301      	orrs	r1, r0
  if (huart->FifoMode == UART_FIFOMODE_DISABLE)
 8002bea:	6e58      	ldr	r0, [r3, #100]	@ 0x64
  MODIFY_REG(huart->Instance->CR3, USART_CR3_RXFTCFG, Threshold);
 8002bec:	6091      	str	r1, [r2, #8]
  if (huart->FifoMode == UART_FIFOMODE_DISABLE)
 8002bee:	b310      	cbz	r0, 8002c36 <HAL_UARTEx_SetRxFifoThreshold+0x72>
    rx_fifo_threshold = (uint8_t)(READ_BIT(huart->Instance->CR3, USART_CR3_RXFTCFG) >> USART_CR3_RXFTCFG_Pos);
 8002bf0:	6891      	ldr	r1, [r2, #8]
    tx_fifo_threshold = (uint8_t)(READ_BIT(huart->Instance->CR3, USART_CR3_TXFTCFG) >> USART_CR3_TXFTCFG_Pos);
 8002bf2:	6890      	ldr	r0, [r2, #8]
                               (uint16_t)denominator[tx_fifo_threshold];
 8002bf4:	4d12      	ldr	r5, [pc, #72]	@ (8002c40 <HAL_UARTEx_SetRxFifoThreshold+0x7c>)
    huart->NbRxDataToProcess = ((uint16_t)rx_fifo_depth * numerator[rx_fifo_threshold]) /
 8002bf6:	f3c1 6c42 	ubfx	ip, r1, #25, #3
    tx_fifo_threshold = (uint8_t)(READ_BIT(huart->Instance->CR3, USART_CR3_TXFTCFG) >> USART_CR3_TXFTCFG_Pos);
 8002bfa:	ea4f 7e50 	mov.w	lr, r0, lsr #29
    huart->NbTxDataToProcess = ((uint16_t)tx_fifo_depth * numerator[tx_fifo_threshold]) /
 8002bfe:	4911      	ldr	r1, [pc, #68]	@ (8002c44 <HAL_UARTEx_SetRxFifoThreshold+0x80>)
 8002c00:	f811 000e 	ldrb.w	r0, [r1, lr]
    huart->NbRxDataToProcess = ((uint16_t)rx_fifo_depth * numerator[rx_fifo_threshold]) /
 8002c04:	f811 100c 	ldrb.w	r1, [r1, ip]
                               (uint16_t)denominator[tx_fifo_threshold];
 8002c08:	f815 e00e 	ldrb.w	lr, [r5, lr]
                               (uint16_t)denominator[rx_fifo_threshold];
 8002c0c:	f815 500c 	ldrb.w	r5, [r5, ip]
    huart->NbTxDataToProcess = ((uint16_t)tx_fifo_depth * numerator[tx_fifo_threshold]) /
 8002c10:	00c0      	lsls	r0, r0, #3
    huart->NbRxDataToProcess = ((uint16_t)rx_fifo_depth * numerator[rx_fifo_threshold]) /
 8002c12:	00c9      	lsls	r1, r1, #3
    huart->NbTxDataToProcess = ((uint16_t)tx_fifo_depth * numerator[tx_fifo_threshold]) /
 8002c14:	fbb0 f0fe 	udiv	r0, r0, lr
    huart->NbRxDataToProcess = ((uint16_t)rx_fifo_depth * numerator[rx_fifo_threshold]) /
 8002c18:	fbb1 f1f5 	udiv	r1, r1, r5
 8002c1c:	f8a3 1068 	strh.w	r1, [r3, #104]	@ 0x68
  __HAL_UNLOCK(huart);
 8002c20:	2100      	movs	r1, #0
 8002c22:	f8a3 006a 	strh.w	r0, [r3, #106]	@ 0x6a
  huart->gState = HAL_UART_STATE_READY;
 8002c26:	2520      	movs	r5, #32
  WRITE_REG(huart->Instance->CR1, tmpcr1);
 8002c28:	6014      	str	r4, [r2, #0]
  __HAL_UNLOCK(huart);
 8002c2a:	f883 1084 	strb.w	r1, [r3, #132]	@ 0x84
  return HAL_OK;
 8002c2e:	4608      	mov	r0, r1
  huart->gState = HAL_UART_STATE_READY;
 8002c30:	f8c3 5088 	str.w	r5, [r3, #136]	@ 0x88
}
 8002c34:	bd30      	pop	{r4, r5, pc}
    huart->NbRxDataToProcess = 1U;
 8002c36:	2101      	movs	r1, #1
    huart->NbTxDataToProcess = 1U;
 8002c38:	4608      	mov	r0, r1
 8002c3a:	e7ef      	b.n	8002c1c <HAL_UARTEx_SetRxFifoThreshold+0x58>
  __HAL_LOCK(huart);
 8002c3c:	2002      	movs	r0, #2
}
 8002c3e:	4770      	bx	lr
 8002c40:	08002ce8 	.word	0x08002ce8
 8002c44:	08002cf0 	.word	0x08002cf0

08002c48 <memset>:
 8002c48:	4402      	add	r2, r0
 8002c4a:	4603      	mov	r3, r0
 8002c4c:	4293      	cmp	r3, r2
 8002c4e:	d100      	bne.n	8002c52 <memset+0xa>
 8002c50:	4770      	bx	lr
 8002c52:	f803 1b01 	strb.w	r1, [r3], #1
 8002c56:	e7f9      	b.n	8002c4c <memset+0x4>

08002c58 <__libc_init_array>:
 8002c58:	b570      	push	{r4, r5, r6, lr}
 8002c5a:	4d0d      	ldr	r5, [pc, #52]	@ (8002c90 <__libc_init_array+0x38>)
 8002c5c:	4c0d      	ldr	r4, [pc, #52]	@ (8002c94 <__libc_init_array+0x3c>)
 8002c5e:	1b64      	subs	r4, r4, r5
 8002c60:	10a4      	asrs	r4, r4, #2
 8002c62:	2600      	movs	r6, #0
 8002c64:	42a6      	cmp	r6, r4
 8002c66:	d109      	bne.n	8002c7c <__libc_init_array+0x24>
 8002c68:	4d0b      	ldr	r5, [pc, #44]	@ (8002c98 <__libc_init_array+0x40>)
 8002c6a:	4c0c      	ldr	r4, [pc, #48]	@ (8002c9c <__libc_init_array+0x44>)
 8002c6c:	f000 f818 	bl	8002ca0 <_init>
 8002c70:	1b64      	subs	r4, r4, r5
 8002c72:	10a4      	asrs	r4, r4, #2
 8002c74:	2600      	movs	r6, #0
 8002c76:	42a6      	cmp	r6, r4
 8002c78:	d105      	bne.n	8002c86 <__libc_init_array+0x2e>
 8002c7a:	bd70      	pop	{r4, r5, r6, pc}
 8002c7c:	f855 3b04 	ldr.w	r3, [r5], #4
 8002c80:	4798      	blx	r3
 8002c82:	3601      	adds	r6, #1
 8002c84:	e7ee      	b.n	8002c64 <__libc_init_array+0xc>
 8002c86:	f855 3b04 	ldr.w	r3, [r5], #4
 8002c8a:	4798      	blx	r3
 8002c8c:	3601      	adds	r6, #1
 8002c8e:	e7f2      	b.n	8002c76 <__libc_init_array+0x1e>
 8002c90:	08002d00 	.word	0x08002d00
 8002c94:	08002d00 	.word	0x08002d00
 8002c98:	08002d00 	.word	0x08002d00
 8002c9c:	08002d04 	.word	0x08002d04

08002ca0 <_init>:
 8002ca0:	b5f8      	push	{r3, r4, r5, r6, r7, lr}
 8002ca2:	bf00      	nop
 8002ca4:	bcf8      	pop	{r3, r4, r5, r6, r7}
 8002ca6:	bc08      	pop	{r3}
 8002ca8:	469e      	mov	lr, r3
 8002caa:	4770      	bx	lr

08002cac <_fini>:
 8002cac:	b5f8      	push	{r3, r4, r5, r6, r7, lr}
 8002cae:	bf00      	nop
 8002cb0:	bcf8      	pop	{r3, r4, r5, r6, r7}
 8002cb2:	bc08      	pop	{r3}
 8002cb4:	469e      	mov	lr, r3
 8002cb6:	4770      	bx	lr
